
SelfBalancingRobot.elf:     file format elf32-littlearm

Sections:
Idx Name          Size      VMA       LMA       File off  Algn
  0 .isr_vector   00000194  08000000  08000000  00010000  2**0
                  CONTENTS, ALLOC, LOAD, READONLY, DATA
  1 .text         0000433c  08000198  08000198  00010198  2**3
                  CONTENTS, ALLOC, LOAD, READONLY, CODE
  2 .rodata       00000090  080044d8  080044d8  000144d8  2**3
                  CONTENTS, ALLOC, LOAD, READONLY, DATA
  3 .ARM.extab    00000000  08004568  08004568  00020078  2**0
                  CONTENTS
  4 .ARM          00000008  08004568  08004568  00014568  2**2
                  CONTENTS, ALLOC, LOAD, READONLY, DATA
  5 .preinit_array 00000000  08004570  08004570  00020078  2**0
                  CONTENTS, ALLOC, LOAD, DATA
  6 .init_array   00000004  08004570  08004570  00014570  2**2
                  CONTENTS, ALLOC, LOAD, DATA
  7 .fini_array   00000004  08004574  08004574  00014574  2**2
                  CONTENTS, ALLOC, LOAD, DATA
  8 .data         00000078  20000000  08004578  00020000  2**2
                  CONTENTS, ALLOC, LOAD, DATA
  9 .bss          00000280  20000078  080045f0  00020078  2**2
                  ALLOC
 10 ._user_heap_stack 00000600  200002f8  080045f0  000202f8  2**0
                  ALLOC
 11 .ARM.attributes 00000030  00000000  00000000  00020078  2**0
                  CONTENTS, READONLY
 12 .comment      00000053  00000000  00000000  000200a8  2**0
                  CONTENTS, READONLY
 13 .debug_frame  000003f8  00000000  00000000  000200fc  2**2
                  CONTENTS, READONLY, DEBUGGING, OCTETS

Disassembly of section .text:

08000198 <__do_global_dtors_aux>:
 8000198:	b510      	push	{r4, lr}
 800019a:	4c05      	ldr	r4, [pc, #20]	; (80001b0 <__do_global_dtors_aux+0x18>)
 800019c:	7823      	ldrb	r3, [r4, #0]
 800019e:	b933      	cbnz	r3, 80001ae <__do_global_dtors_aux+0x16>
 80001a0:	4b04      	ldr	r3, [pc, #16]	; (80001b4 <__do_global_dtors_aux+0x1c>)
 80001a2:	b113      	cbz	r3, 80001aa <__do_global_dtors_aux+0x12>
 80001a4:	4804      	ldr	r0, [pc, #16]	; (80001b8 <__do_global_dtors_aux+0x20>)
 80001a6:	f3af 8000 	nop.w
 80001aa:	2301      	movs	r3, #1
 80001ac:	7023      	strb	r3, [r4, #0]
 80001ae:	bd10      	pop	{r4, pc}
 80001b0:	20000078 	.word	0x20000078
 80001b4:	00000000 	.word	0x00000000
 80001b8:	080044bc 	.word	0x080044bc

080001bc <frame_dummy>:
 80001bc:	b508      	push	{r3, lr}
 80001be:	4b03      	ldr	r3, [pc, #12]	; (80001cc <frame_dummy+0x10>)
 80001c0:	b11b      	cbz	r3, 80001ca <frame_dummy+0xe>
 80001c2:	4903      	ldr	r1, [pc, #12]	; (80001d0 <frame_dummy+0x14>)
 80001c4:	4803      	ldr	r0, [pc, #12]	; (80001d4 <frame_dummy+0x18>)
 80001c6:	f3af 8000 	nop.w
 80001ca:	bd08      	pop	{r3, pc}
 80001cc:	00000000 	.word	0x00000000
 80001d0:	2000007c 	.word	0x2000007c
 80001d4:	080044bc 	.word	0x080044bc

080001d8 <__aeabi_drsub>:
 80001d8:	f081 4100 	eor.w	r1, r1, #2147483648	; 0x80000000
 80001dc:	e002      	b.n	80001e4 <__adddf3>
 80001de:	bf00      	nop

080001e0 <__aeabi_dsub>:
 80001e0:	f083 4300 	eor.w	r3, r3, #2147483648	; 0x80000000

080001e4 <__adddf3>:
 80001e4:	b530      	push	{r4, r5, lr}
 80001e6:	ea4f 0441 	mov.w	r4, r1, lsl #1
 80001ea:	ea4f 0543 	mov.w	r5, r3, lsl #1
 80001ee:	ea94 0f05 	teq	r4, r5
 80001f2:	bf08      	it	eq
 80001f4:	ea90 0f02 	teqeq	r0, r2
 80001f8:	bf1f      	itttt	ne
 80001fa:	ea54 0c00 	orrsne.w	ip, r4, r0
 80001fe:	ea55 0c02 	orrsne.w	ip, r5, r2
 8000202:	ea7f 5c64 	mvnsne.w	ip, r4, asr #21
 8000206:	ea7f 5c65 	mvnsne.w	ip, r5, asr #21
 800020a:	f000 80e2 	beq.w	80003d2 <__adddf3+0x1ee>
 800020e:	ea4f 5454 	mov.w	r4, r4, lsr #21
 8000212:	ebd4 5555 	rsbs	r5, r4, r5, lsr #21
 8000216:	bfb8      	it	lt
 8000218:	426d      	neglt	r5, r5
 800021a:	dd0c      	ble.n	8000236 <__adddf3+0x52>
 800021c:	442c      	add	r4, r5
 800021e:	ea80 0202 	eor.w	r2, r0, r2
 8000222:	ea81 0303 	eor.w	r3, r1, r3
 8000226:	ea82 0000 	eor.w	r0, r2, r0
 800022a:	ea83 0101 	eor.w	r1, r3, r1
 800022e:	ea80 0202 	eor.w	r2, r0, r2
 8000232:	ea81 0303 	eor.w	r3, r1, r3
 8000236:	2d36      	cmp	r5, #54	; 0x36
 8000238:	bf88      	it	hi
 800023a:	bd30      	pophi	{r4, r5, pc}
 800023c:	f011 4f00 	tst.w	r1, #2147483648	; 0x80000000
 8000240:	ea4f 3101 	mov.w	r1, r1, lsl #12
 8000244:	f44f 1c80 	mov.w	ip, #1048576	; 0x100000
 8000248:	ea4c 3111 	orr.w	r1, ip, r1, lsr #12
 800024c:	d002      	beq.n	8000254 <__adddf3+0x70>
 800024e:	4240      	negs	r0, r0
 8000250:	eb61 0141 	sbc.w	r1, r1, r1, lsl #1
 8000254:	f013 4f00 	tst.w	r3, #2147483648	; 0x80000000
 8000258:	ea4f 3303 	mov.w	r3, r3, lsl #12
 800025c:	ea4c 3313 	orr.w	r3, ip, r3, lsr #12
 8000260:	d002      	beq.n	8000268 <__adddf3+0x84>
 8000262:	4252      	negs	r2, r2
 8000264:	eb63 0343 	sbc.w	r3, r3, r3, lsl #1
 8000268:	ea94 0f05 	teq	r4, r5
 800026c:	f000 80a7 	beq.w	80003be <__adddf3+0x1da>
 8000270:	f1a4 0401 	sub.w	r4, r4, #1
 8000274:	f1d5 0e20 	rsbs	lr, r5, #32
 8000278:	db0d      	blt.n	8000296 <__adddf3+0xb2>
 800027a:	fa02 fc0e 	lsl.w	ip, r2, lr
 800027e:	fa22 f205 	lsr.w	r2, r2, r5
 8000282:	1880      	adds	r0, r0, r2
 8000284:	f141 0100 	adc.w	r1, r1, #0
 8000288:	fa03 f20e 	lsl.w	r2, r3, lr
 800028c:	1880      	adds	r0, r0, r2
 800028e:	fa43 f305 	asr.w	r3, r3, r5
 8000292:	4159      	adcs	r1, r3
 8000294:	e00e      	b.n	80002b4 <__adddf3+0xd0>
 8000296:	f1a5 0520 	sub.w	r5, r5, #32
 800029a:	f10e 0e20 	add.w	lr, lr, #32
 800029e:	2a01      	cmp	r2, #1
 80002a0:	fa03 fc0e 	lsl.w	ip, r3, lr
 80002a4:	bf28      	it	cs
 80002a6:	f04c 0c02 	orrcs.w	ip, ip, #2
 80002aa:	fa43 f305 	asr.w	r3, r3, r5
 80002ae:	18c0      	adds	r0, r0, r3
 80002b0:	eb51 71e3 	adcs.w	r1, r1, r3, asr #31
 80002b4:	f001 4500 	and.w	r5, r1, #2147483648	; 0x80000000
 80002b8:	d507      	bpl.n	80002ca <__adddf3+0xe6>
 80002ba:	f04f 0e00 	mov.w	lr, #0
 80002be:	f1dc 0c00 	rsbs	ip, ip, #0
 80002c2:	eb7e 0000 	sbcs.w	r0, lr, r0
 80002c6:	eb6e 0101 	sbc.w	r1, lr, r1
 80002ca:	f5b1 1f80 	cmp.w	r1, #1048576	; 0x100000
 80002ce:	d31b      	bcc.n	8000308 <__adddf3+0x124>
 80002d0:	f5b1 1f00 	cmp.w	r1, #2097152	; 0x200000
 80002d4:	d30c      	bcc.n	80002f0 <__adddf3+0x10c>
 80002d6:	0849      	lsrs	r1, r1, #1
 80002d8:	ea5f 0030 	movs.w	r0, r0, rrx
 80002dc:	ea4f 0c3c 	mov.w	ip, ip, rrx
 80002e0:	f104 0401 	add.w	r4, r4, #1
 80002e4:	ea4f 5244 	mov.w	r2, r4, lsl #21
 80002e8:	f512 0f80 	cmn.w	r2, #4194304	; 0x400000
 80002ec:	f080 809a 	bcs.w	8000424 <__adddf3+0x240>
 80002f0:	f1bc 4f00 	cmp.w	ip, #2147483648	; 0x80000000
 80002f4:	bf08      	it	eq
 80002f6:	ea5f 0c50 	movseq.w	ip, r0, lsr #1
 80002fa:	f150 0000 	adcs.w	r0, r0, #0
 80002fe:	eb41 5104 	adc.w	r1, r1, r4, lsl #20
 8000302:	ea41 0105 	orr.w	r1, r1, r5
 8000306:	bd30      	pop	{r4, r5, pc}
 8000308:	ea5f 0c4c 	movs.w	ip, ip, lsl #1
 800030c:	4140      	adcs	r0, r0
 800030e:	eb41 0101 	adc.w	r1, r1, r1
 8000312:	3c01      	subs	r4, #1
 8000314:	bf28      	it	cs
 8000316:	f5b1 1f80 	cmpcs.w	r1, #1048576	; 0x100000
 800031a:	d2e9      	bcs.n	80002f0 <__adddf3+0x10c>
 800031c:	f091 0f00 	teq	r1, #0
 8000320:	bf04      	itt	eq
 8000322:	4601      	moveq	r1, r0
 8000324:	2000      	moveq	r0, #0
 8000326:	fab1 f381 	clz	r3, r1
 800032a:	bf08      	it	eq
 800032c:	3320      	addeq	r3, #32
 800032e:	f1a3 030b 	sub.w	r3, r3, #11
 8000332:	f1b3 0220 	subs.w	r2, r3, #32
 8000336:	da0c      	bge.n	8000352 <__adddf3+0x16e>
 8000338:	320c      	adds	r2, #12
 800033a:	dd08      	ble.n	800034e <__adddf3+0x16a>
 800033c:	f102 0c14 	add.w	ip, r2, #20
 8000340:	f1c2 020c 	rsb	r2, r2, #12
 8000344:	fa01 f00c 	lsl.w	r0, r1, ip
 8000348:	fa21 f102 	lsr.w	r1, r1, r2
 800034c:	e00c      	b.n	8000368 <__adddf3+0x184>
 800034e:	f102 0214 	add.w	r2, r2, #20
 8000352:	bfd8      	it	le
 8000354:	f1c2 0c20 	rsble	ip, r2, #32
 8000358:	fa01 f102 	lsl.w	r1, r1, r2
 800035c:	fa20 fc0c 	lsr.w	ip, r0, ip
 8000360:	bfdc      	itt	le
 8000362:	ea41 010c 	orrle.w	r1, r1, ip
 8000366:	4090      	lslle	r0, r2
 8000368:	1ae4      	subs	r4, r4, r3
 800036a:	bfa2      	ittt	ge
 800036c:	eb01 5104 	addge.w	r1, r1, r4, lsl #20
 8000370:	4329      	orrge	r1, r5
 8000372:	bd30      	popge	{r4, r5, pc}
 8000374:	ea6f 0404 	mvn.w	r4, r4
 8000378:	3c1f      	subs	r4, #31
 800037a:	da1c      	bge.n	80003b6 <__adddf3+0x1d2>
 800037c:	340c      	adds	r4, #12
 800037e:	dc0e      	bgt.n	800039e <__adddf3+0x1ba>
 8000380:	f104 0414 	add.w	r4, r4, #20
 8000384:	f1c4 0220 	rsb	r2, r4, #32
 8000388:	fa20 f004 	lsr.w	r0, r0, r4
 800038c:	fa01 f302 	lsl.w	r3, r1, r2
 8000390:	ea40 0003 	orr.w	r0, r0, r3
 8000394:	fa21 f304 	lsr.w	r3, r1, r4
 8000398:	ea45 0103 	orr.w	r1, r5, r3
 800039c:	bd30      	pop	{r4, r5, pc}
 800039e:	f1c4 040c 	rsb	r4, r4, #12
 80003a2:	f1c4 0220 	rsb	r2, r4, #32
 80003a6:	fa20 f002 	lsr.w	r0, r0, r2
 80003aa:	fa01 f304 	lsl.w	r3, r1, r4
 80003ae:	ea40 0003 	orr.w	r0, r0, r3
 80003b2:	4629      	mov	r1, r5
 80003b4:	bd30      	pop	{r4, r5, pc}
 80003b6:	fa21 f004 	lsr.w	r0, r1, r4
 80003ba:	4629      	mov	r1, r5
 80003bc:	bd30      	pop	{r4, r5, pc}
 80003be:	f094 0f00 	teq	r4, #0
 80003c2:	f483 1380 	eor.w	r3, r3, #1048576	; 0x100000
 80003c6:	bf06      	itte	eq
 80003c8:	f481 1180 	eoreq.w	r1, r1, #1048576	; 0x100000
 80003cc:	3401      	addeq	r4, #1
 80003ce:	3d01      	subne	r5, #1
 80003d0:	e74e      	b.n	8000270 <__adddf3+0x8c>
 80003d2:	ea7f 5c64 	mvns.w	ip, r4, asr #21
 80003d6:	bf18      	it	ne
 80003d8:	ea7f 5c65 	mvnsne.w	ip, r5, asr #21
 80003dc:	d029      	beq.n	8000432 <__adddf3+0x24e>
 80003de:	ea94 0f05 	teq	r4, r5
 80003e2:	bf08      	it	eq
 80003e4:	ea90 0f02 	teqeq	r0, r2
 80003e8:	d005      	beq.n	80003f6 <__adddf3+0x212>
 80003ea:	ea54 0c00 	orrs.w	ip, r4, r0
 80003ee:	bf04      	itt	eq
 80003f0:	4619      	moveq	r1, r3
 80003f2:	4610      	moveq	r0, r2
 80003f4:	bd30      	pop	{r4, r5, pc}
 80003f6:	ea91 0f03 	teq	r1, r3
 80003fa:	bf1e      	ittt	ne
 80003fc:	2100      	movne	r1, #0
 80003fe:	2000      	movne	r0, #0
 8000400:	bd30      	popne	{r4, r5, pc}
 8000402:	ea5f 5c54 	movs.w	ip, r4, lsr #21
 8000406:	d105      	bne.n	8000414 <__adddf3+0x230>
 8000408:	0040      	lsls	r0, r0, #1
 800040a:	4149      	adcs	r1, r1
 800040c:	bf28      	it	cs
 800040e:	f041 4100 	orrcs.w	r1, r1, #2147483648	; 0x80000000
 8000412:	bd30      	pop	{r4, r5, pc}
 8000414:	f514 0480 	adds.w	r4, r4, #4194304	; 0x400000
 8000418:	bf3c      	itt	cc
 800041a:	f501 1180 	addcc.w	r1, r1, #1048576	; 0x100000
 800041e:	bd30      	popcc	{r4, r5, pc}
 8000420:	f001 4500 	and.w	r5, r1, #2147483648	; 0x80000000
 8000424:	f045 41fe 	orr.w	r1, r5, #2130706432	; 0x7f000000
 8000428:	f441 0170 	orr.w	r1, r1, #15728640	; 0xf00000
 800042c:	f04f 0000 	mov.w	r0, #0
 8000430:	bd30      	pop	{r4, r5, pc}
 8000432:	ea7f 5c64 	mvns.w	ip, r4, asr #21
 8000436:	bf1a      	itte	ne
 8000438:	4619      	movne	r1, r3
 800043a:	4610      	movne	r0, r2
 800043c:	ea7f 5c65 	mvnseq.w	ip, r5, asr #21
 8000440:	bf1c      	itt	ne
 8000442:	460b      	movne	r3, r1
 8000444:	4602      	movne	r2, r0
 8000446:	ea50 3401 	orrs.w	r4, r0, r1, lsl #12
 800044a:	bf06      	itte	eq
 800044c:	ea52 3503 	orrseq.w	r5, r2, r3, lsl #12
 8000450:	ea91 0f03 	teqeq	r1, r3
 8000454:	f441 2100 	orrne.w	r1, r1, #524288	; 0x80000
 8000458:	bd30      	pop	{r4, r5, pc}
 800045a:	bf00      	nop

0800045c <__aeabi_ui2d>:
 800045c:	f090 0f00 	teq	r0, #0
 8000460:	bf04      	itt	eq
 8000462:	2100      	moveq	r1, #0
 8000464:	4770      	bxeq	lr
 8000466:	b530      	push	{r4, r5, lr}
 8000468:	f44f 6480 	mov.w	r4, #1024	; 0x400
 800046c:	f104 0432 	add.w	r4, r4, #50	; 0x32
 8000470:	f04f 0500 	mov.w	r5, #0
 8000474:	f04f 0100 	mov.w	r1, #0
 8000478:	e750      	b.n	800031c <__adddf3+0x138>
 800047a:	bf00      	nop

0800047c <__aeabi_i2d>:
 800047c:	f090 0f00 	teq	r0, #0
 8000480:	bf04      	itt	eq
 8000482:	2100      	moveq	r1, #0
 8000484:	4770      	bxeq	lr
 8000486:	b530      	push	{r4, r5, lr}
 8000488:	f44f 6480 	mov.w	r4, #1024	; 0x400
 800048c:	f104 0432 	add.w	r4, r4, #50	; 0x32
 8000490:	f010 4500 	ands.w	r5, r0, #2147483648	; 0x80000000
 8000494:	bf48      	it	mi
 8000496:	4240      	negmi	r0, r0
 8000498:	f04f 0100 	mov.w	r1, #0
 800049c:	e73e      	b.n	800031c <__adddf3+0x138>
 800049e:	bf00      	nop

080004a0 <__aeabi_f2d>:
 80004a0:	0042      	lsls	r2, r0, #1
 80004a2:	ea4f 01e2 	mov.w	r1, r2, asr #3
 80004a6:	ea4f 0131 	mov.w	r1, r1, rrx
 80004aa:	ea4f 7002 	mov.w	r0, r2, lsl #28
 80004ae:	bf1f      	itttt	ne
 80004b0:	f012 437f 	andsne.w	r3, r2, #4278190080	; 0xff000000
 80004b4:	f093 4f7f 	teqne	r3, #4278190080	; 0xff000000
 80004b8:	f081 5160 	eorne.w	r1, r1, #939524096	; 0x38000000
 80004bc:	4770      	bxne	lr
 80004be:	f032 427f 	bics.w	r2, r2, #4278190080	; 0xff000000
 80004c2:	bf08      	it	eq
 80004c4:	4770      	bxeq	lr
 80004c6:	f093 4f7f 	teq	r3, #4278190080	; 0xff000000
 80004ca:	bf04      	itt	eq
 80004cc:	f441 2100 	orreq.w	r1, r1, #524288	; 0x80000
 80004d0:	4770      	bxeq	lr
 80004d2:	b530      	push	{r4, r5, lr}
 80004d4:	f44f 7460 	mov.w	r4, #896	; 0x380
 80004d8:	f001 4500 	and.w	r5, r1, #2147483648	; 0x80000000
 80004dc:	f021 4100 	bic.w	r1, r1, #2147483648	; 0x80000000
 80004e0:	e71c      	b.n	800031c <__adddf3+0x138>
 80004e2:	bf00      	nop

080004e4 <__aeabi_ul2d>:
 80004e4:	ea50 0201 	orrs.w	r2, r0, r1
 80004e8:	bf08      	it	eq
 80004ea:	4770      	bxeq	lr
 80004ec:	b530      	push	{r4, r5, lr}
 80004ee:	f04f 0500 	mov.w	r5, #0
 80004f2:	e00a      	b.n	800050a <__aeabi_l2d+0x16>

080004f4 <__aeabi_l2d>:
 80004f4:	ea50 0201 	orrs.w	r2, r0, r1
 80004f8:	bf08      	it	eq
 80004fa:	4770      	bxeq	lr
 80004fc:	b530      	push	{r4, r5, lr}
 80004fe:	f011 4500 	ands.w	r5, r1, #2147483648	; 0x80000000
 8000502:	d502      	bpl.n	800050a <__aeabi_l2d+0x16>
 8000504:	4240      	negs	r0, r0
 8000506:	eb61 0141 	sbc.w	r1, r1, r1, lsl #1
 800050a:	f44f 6480 	mov.w	r4, #1024	; 0x400
 800050e:	f104 0432 	add.w	r4, r4, #50	; 0x32
 8000512:	ea5f 5c91 	movs.w	ip, r1, lsr #22
 8000516:	f43f aed8 	beq.w	80002ca <__adddf3+0xe6>
 800051a:	f04f 0203 	mov.w	r2, #3
 800051e:	ea5f 0cdc 	movs.w	ip, ip, lsr #3
 8000522:	bf18      	it	ne
 8000524:	3203      	addne	r2, #3
 8000526:	ea5f 0cdc 	movs.w	ip, ip, lsr #3
 800052a:	bf18      	it	ne
 800052c:	3203      	addne	r2, #3
 800052e:	eb02 02dc 	add.w	r2, r2, ip, lsr #3
 8000532:	f1c2 0320 	rsb	r3, r2, #32
 8000536:	fa00 fc03 	lsl.w	ip, r0, r3
 800053a:	fa20 f002 	lsr.w	r0, r0, r2
 800053e:	fa01 fe03 	lsl.w	lr, r1, r3
 8000542:	ea40 000e 	orr.w	r0, r0, lr
 8000546:	fa21 f102 	lsr.w	r1, r1, r2
 800054a:	4414      	add	r4, r2
 800054c:	e6bd      	b.n	80002ca <__adddf3+0xe6>
 800054e:	bf00      	nop

08000550 <__aeabi_dmul>:
 8000550:	b570      	push	{r4, r5, r6, lr}
 8000552:	f04f 0cff 	mov.w	ip, #255	; 0xff
 8000556:	f44c 6ce0 	orr.w	ip, ip, #1792	; 0x700
 800055a:	ea1c 5411 	ands.w	r4, ip, r1, lsr #20
 800055e:	bf1d      	ittte	ne
 8000560:	ea1c 5513 	andsne.w	r5, ip, r3, lsr #20
 8000564:	ea94 0f0c 	teqne	r4, ip
 8000568:	ea95 0f0c 	teqne	r5, ip
 800056c:	f000 f8de 	bleq	800072c <__aeabi_dmul+0x1dc>
 8000570:	442c      	add	r4, r5
 8000572:	ea81 0603 	eor.w	r6, r1, r3
 8000576:	ea21 514c 	bic.w	r1, r1, ip, lsl #21
 800057a:	ea23 534c 	bic.w	r3, r3, ip, lsl #21
 800057e:	ea50 3501 	orrs.w	r5, r0, r1, lsl #12
 8000582:	bf18      	it	ne
 8000584:	ea52 3503 	orrsne.w	r5, r2, r3, lsl #12
 8000588:	f441 1180 	orr.w	r1, r1, #1048576	; 0x100000
 800058c:	f443 1380 	orr.w	r3, r3, #1048576	; 0x100000
 8000590:	d038      	beq.n	8000604 <__aeabi_dmul+0xb4>
 8000592:	fba0 ce02 	umull	ip, lr, r0, r2
 8000596:	f04f 0500 	mov.w	r5, #0
 800059a:	fbe1 e502 	umlal	lr, r5, r1, r2
 800059e:	f006 4200 	and.w	r2, r6, #2147483648	; 0x80000000
 80005a2:	fbe0 e503 	umlal	lr, r5, r0, r3
 80005a6:	f04f 0600 	mov.w	r6, #0
 80005aa:	fbe1 5603 	umlal	r5, r6, r1, r3
 80005ae:	f09c 0f00 	teq	ip, #0
 80005b2:	bf18      	it	ne
 80005b4:	f04e 0e01 	orrne.w	lr, lr, #1
 80005b8:	f1a4 04ff 	sub.w	r4, r4, #255	; 0xff
 80005bc:	f5b6 7f00 	cmp.w	r6, #512	; 0x200
 80005c0:	f564 7440 	sbc.w	r4, r4, #768	; 0x300
 80005c4:	d204      	bcs.n	80005d0 <__aeabi_dmul+0x80>
 80005c6:	ea5f 0e4e 	movs.w	lr, lr, lsl #1
 80005ca:	416d      	adcs	r5, r5
 80005cc:	eb46 0606 	adc.w	r6, r6, r6
 80005d0:	ea42 21c6 	orr.w	r1, r2, r6, lsl #11
 80005d4:	ea41 5155 	orr.w	r1, r1, r5, lsr #21
 80005d8:	ea4f 20c5 	mov.w	r0, r5, lsl #11
 80005dc:	ea40 505e 	orr.w	r0, r0, lr, lsr #21
 80005e0:	ea4f 2ece 	mov.w	lr, lr, lsl #11
 80005e4:	f1b4 0cfd 	subs.w	ip, r4, #253	; 0xfd
 80005e8:	bf88      	it	hi
 80005ea:	f5bc 6fe0 	cmphi.w	ip, #1792	; 0x700
 80005ee:	d81e      	bhi.n	800062e <__aeabi_dmul+0xde>
 80005f0:	f1be 4f00 	cmp.w	lr, #2147483648	; 0x80000000
 80005f4:	bf08      	it	eq
 80005f6:	ea5f 0e50 	movseq.w	lr, r0, lsr #1
 80005fa:	f150 0000 	adcs.w	r0, r0, #0
 80005fe:	eb41 5104 	adc.w	r1, r1, r4, lsl #20
 8000602:	bd70      	pop	{r4, r5, r6, pc}
 8000604:	f006 4600 	and.w	r6, r6, #2147483648	; 0x80000000
 8000608:	ea46 0101 	orr.w	r1, r6, r1
 800060c:	ea40 0002 	orr.w	r0, r0, r2
 8000610:	ea81 0103 	eor.w	r1, r1, r3
 8000614:	ebb4 045c 	subs.w	r4, r4, ip, lsr #1
 8000618:	bfc2      	ittt	gt
 800061a:	ebd4 050c 	rsbsgt	r5, r4, ip
 800061e:	ea41 5104 	orrgt.w	r1, r1, r4, lsl #20
 8000622:	bd70      	popgt	{r4, r5, r6, pc}
 8000624:	f441 1180 	orr.w	r1, r1, #1048576	; 0x100000
 8000628:	f04f 0e00 	mov.w	lr, #0
 800062c:	3c01      	subs	r4, #1
 800062e:	f300 80ab 	bgt.w	8000788 <__aeabi_dmul+0x238>
 8000632:	f114 0f36 	cmn.w	r4, #54	; 0x36
 8000636:	bfde      	ittt	le
 8000638:	2000      	movle	r0, #0
 800063a:	f001 4100 	andle.w	r1, r1, #2147483648	; 0x80000000
 800063e:	bd70      	pople	{r4, r5, r6, pc}
 8000640:	f1c4 0400 	rsb	r4, r4, #0
 8000644:	3c20      	subs	r4, #32
 8000646:	da35      	bge.n	80006b4 <__aeabi_dmul+0x164>
 8000648:	340c      	adds	r4, #12
 800064a:	dc1b      	bgt.n	8000684 <__aeabi_dmul+0x134>
 800064c:	f104 0414 	add.w	r4, r4, #20
 8000650:	f1c4 0520 	rsb	r5, r4, #32
 8000654:	fa00 f305 	lsl.w	r3, r0, r5
 8000658:	fa20 f004 	lsr.w	r0, r0, r4
 800065c:	fa01 f205 	lsl.w	r2, r1, r5
 8000660:	ea40 0002 	orr.w	r0, r0, r2
 8000664:	f001 4200 	and.w	r2, r1, #2147483648	; 0x80000000
 8000668:	f021 4100 	bic.w	r1, r1, #2147483648	; 0x80000000
 800066c:	eb10 70d3 	adds.w	r0, r0, r3, lsr #31
 8000670:	fa21 f604 	lsr.w	r6, r1, r4
 8000674:	eb42 0106 	adc.w	r1, r2, r6
 8000678:	ea5e 0e43 	orrs.w	lr, lr, r3, lsl #1
 800067c:	bf08      	it	eq
 800067e:	ea20 70d3 	biceq.w	r0, r0, r3, lsr #31
 8000682:	bd70      	pop	{r4, r5, r6, pc}
 8000684:	f1c4 040c 	rsb	r4, r4, #12
 8000688:	f1c4 0520 	rsb	r5, r4, #32
 800068c:	fa00 f304 	lsl.w	r3, r0, r4
 8000690:	fa20 f005 	lsr.w	r0, r0, r5
 8000694:	fa01 f204 	lsl.w	r2, r1, r4
 8000698:	ea40 0002 	orr.w	r0, r0, r2
 800069c:	f001 4100 	and.w	r1, r1, #2147483648	; 0x80000000
 80006a0:	eb10 70d3 	adds.w	r0, r0, r3, lsr #31
 80006a4:	f141 0100 	adc.w	r1, r1, #0
 80006a8:	ea5e 0e43 	orrs.w	lr, lr, r3, lsl #1
 80006ac:	bf08      	it	eq
 80006ae:	ea20 70d3 	biceq.w	r0, r0, r3, lsr #31
 80006b2:	bd70      	pop	{r4, r5, r6, pc}
 80006b4:	f1c4 0520 	rsb	r5, r4, #32
 80006b8:	fa00 f205 	lsl.w	r2, r0, r5
 80006bc:	ea4e 0e02 	orr.w	lr, lr, r2
 80006c0:	fa20 f304 	lsr.w	r3, r0, r4
 80006c4:	fa01 f205 	lsl.w	r2, r1, r5
 80006c8:	ea43 0302 	orr.w	r3, r3, r2
 80006cc:	fa21 f004 	lsr.w	r0, r1, r4
 80006d0:	f001 4100 	and.w	r1, r1, #2147483648	; 0x80000000
 80006d4:	fa21 f204 	lsr.w	r2, r1, r4
 80006d8:	ea20 0002 	bic.w	r0, r0, r2
 80006dc:	eb00 70d3 	add.w	r0, r0, r3, lsr #31
 80006e0:	ea5e 0e43 	orrs.w	lr, lr, r3, lsl #1
 80006e4:	bf08      	it	eq
 80006e6:	ea20 70d3 	biceq.w	r0, r0, r3, lsr #31
 80006ea:	bd70      	pop	{r4, r5, r6, pc}
 80006ec:	f094 0f00 	teq	r4, #0
 80006f0:	d10f      	bne.n	8000712 <__aeabi_dmul+0x1c2>
 80006f2:	f001 4600 	and.w	r6, r1, #2147483648	; 0x80000000
 80006f6:	0040      	lsls	r0, r0, #1
 80006f8:	eb41 0101 	adc.w	r1, r1, r1
 80006fc:	f411 1f80 	tst.w	r1, #1048576	; 0x100000
 8000700:	bf08      	it	eq
 8000702:	3c01      	subeq	r4, #1
 8000704:	d0f7      	beq.n	80006f6 <__aeabi_dmul+0x1a6>
 8000706:	ea41 0106 	orr.w	r1, r1, r6
 800070a:	f095 0f00 	teq	r5, #0
 800070e:	bf18      	it	ne
 8000710:	4770      	bxne	lr
 8000712:	f003 4600 	and.w	r6, r3, #2147483648	; 0x80000000
 8000716:	0052      	lsls	r2, r2, #1
 8000718:	eb43 0303 	adc.w	r3, r3, r3
 800071c:	f413 1f80 	tst.w	r3, #1048576	; 0x100000
 8000720:	bf08      	it	eq
 8000722:	3d01      	subeq	r5, #1
 8000724:	d0f7      	beq.n	8000716 <__aeabi_dmul+0x1c6>
 8000726:	ea43 0306 	orr.w	r3, r3, r6
 800072a:	4770      	bx	lr
 800072c:	ea94 0f0c 	teq	r4, ip
 8000730:	ea0c 5513 	and.w	r5, ip, r3, lsr #20
 8000734:	bf18      	it	ne
 8000736:	ea95 0f0c 	teqne	r5, ip
 800073a:	d00c      	beq.n	8000756 <__aeabi_dmul+0x206>
 800073c:	ea50 0641 	orrs.w	r6, r0, r1, lsl #1
 8000740:	bf18      	it	ne
 8000742:	ea52 0643 	orrsne.w	r6, r2, r3, lsl #1
 8000746:	d1d1      	bne.n	80006ec <__aeabi_dmul+0x19c>
 8000748:	ea81 0103 	eor.w	r1, r1, r3
 800074c:	f001 4100 	and.w	r1, r1, #2147483648	; 0x80000000
 8000750:	f04f 0000 	mov.w	r0, #0
 8000754:	bd70      	pop	{r4, r5, r6, pc}
 8000756:	ea50 0641 	orrs.w	r6, r0, r1, lsl #1
 800075a:	bf06      	itte	eq
 800075c:	4610      	moveq	r0, r2
 800075e:	4619      	moveq	r1, r3
 8000760:	ea52 0643 	orrsne.w	r6, r2, r3, lsl #1
 8000764:	d019      	beq.n	800079a <__aeabi_dmul+0x24a>
 8000766:	ea94 0f0c 	teq	r4, ip
 800076a:	d102      	bne.n	8000772 <__aeabi_dmul+0x222>
 800076c:	ea50 3601 	orrs.w	r6, r0, r1, lsl #12
 8000770:	d113      	bne.n	800079a <__aeabi_dmul+0x24a>
 8000772:	ea95 0f0c 	teq	r5, ip
 8000776:	d105      	bne.n	8000784 <__aeabi_dmul+0x234>
 8000778:	ea52 3603 	orrs.w	r6, r2, r3, lsl #12
 800077c:	bf1c      	itt	ne
 800077e:	4610      	movne	r0, r2
 8000780:	4619      	movne	r1, r3
 8000782:	d10a      	bne.n	800079a <__aeabi_dmul+0x24a>
 8000784:	ea81 0103 	eor.w	r1, r1, r3
 8000788:	f001 4100 	and.w	r1, r1, #2147483648	; 0x80000000
 800078c:	f041 41fe 	orr.w	r1, r1, #2130706432	; 0x7f000000
 8000790:	f441 0170 	orr.w	r1, r1, #15728640	; 0xf00000
 8000794:	f04f 0000 	mov.w	r0, #0
 8000798:	bd70      	pop	{r4, r5, r6, pc}
 800079a:	f041 41fe 	orr.w	r1, r1, #2130706432	; 0x7f000000
 800079e:	f441 0178 	orr.w	r1, r1, #16252928	; 0xf80000
 80007a2:	bd70      	pop	{r4, r5, r6, pc}

080007a4 <__aeabi_ddiv>:
 80007a4:	b570      	push	{r4, r5, r6, lr}
 80007a6:	f04f 0cff 	mov.w	ip, #255	; 0xff
 80007aa:	f44c 6ce0 	orr.w	ip, ip, #1792	; 0x700
 80007ae:	ea1c 5411 	ands.w	r4, ip, r1, lsr #20
 80007b2:	bf1d      	ittte	ne
 80007b4:	ea1c 5513 	andsne.w	r5, ip, r3, lsr #20
 80007b8:	ea94 0f0c 	teqne	r4, ip
 80007bc:	ea95 0f0c 	teqne	r5, ip
 80007c0:	f000 f8a7 	bleq	8000912 <__aeabi_ddiv+0x16e>
 80007c4:	eba4 0405 	sub.w	r4, r4, r5
 80007c8:	ea81 0e03 	eor.w	lr, r1, r3
 80007cc:	ea52 3503 	orrs.w	r5, r2, r3, lsl #12
 80007d0:	ea4f 3101 	mov.w	r1, r1, lsl #12
 80007d4:	f000 8088 	beq.w	80008e8 <__aeabi_ddiv+0x144>
 80007d8:	ea4f 3303 	mov.w	r3, r3, lsl #12
 80007dc:	f04f 5580 	mov.w	r5, #268435456	; 0x10000000
 80007e0:	ea45 1313 	orr.w	r3, r5, r3, lsr #4
 80007e4:	ea43 6312 	orr.w	r3, r3, r2, lsr #24
 80007e8:	ea4f 2202 	mov.w	r2, r2, lsl #8
 80007ec:	ea45 1511 	orr.w	r5, r5, r1, lsr #4
 80007f0:	ea45 6510 	orr.w	r5, r5, r0, lsr #24
 80007f4:	ea4f 2600 	mov.w	r6, r0, lsl #8
 80007f8:	f00e 4100 	and.w	r1, lr, #2147483648	; 0x80000000
 80007fc:	429d      	cmp	r5, r3
 80007fe:	bf08      	it	eq
 8000800:	4296      	cmpeq	r6, r2
 8000802:	f144 04fd 	adc.w	r4, r4, #253	; 0xfd
 8000806:	f504 7440 	add.w	r4, r4, #768	; 0x300
 800080a:	d202      	bcs.n	8000812 <__aeabi_ddiv+0x6e>
 800080c:	085b      	lsrs	r3, r3, #1
 800080e:	ea4f 0232 	mov.w	r2, r2, rrx
 8000812:	1ab6      	subs	r6, r6, r2
 8000814:	eb65 0503 	sbc.w	r5, r5, r3
 8000818:	085b      	lsrs	r3, r3, #1
 800081a:	ea4f 0232 	mov.w	r2, r2, rrx
 800081e:	f44f 1080 	mov.w	r0, #1048576	; 0x100000
 8000822:	f44f 2c00 	mov.w	ip, #524288	; 0x80000
 8000826:	ebb6 0e02 	subs.w	lr, r6, r2
 800082a:	eb75 0e03 	sbcs.w	lr, r5, r3
 800082e:	bf22      	ittt	cs
 8000830:	1ab6      	subcs	r6, r6, r2
 8000832:	4675      	movcs	r5, lr
 8000834:	ea40 000c 	orrcs.w	r0, r0, ip
 8000838:	085b      	lsrs	r3, r3, #1
 800083a:	ea4f 0232 	mov.w	r2, r2, rrx
 800083e:	ebb6 0e02 	subs.w	lr, r6, r2
 8000842:	eb75 0e03 	sbcs.w	lr, r5, r3
 8000846:	bf22      	ittt	cs
 8000848:	1ab6      	subcs	r6, r6, r2
 800084a:	4675      	movcs	r5, lr
 800084c:	ea40 005c 	orrcs.w	r0, r0, ip, lsr #1
 8000850:	085b      	lsrs	r3, r3, #1
 8000852:	ea4f 0232 	mov.w	r2, r2, rrx
 8000856:	ebb6 0e02 	subs.w	lr, r6, r2
 800085a:	eb75 0e03 	sbcs.w	lr, r5, r3
 800085e:	bf22      	ittt	cs
 8000860:	1ab6      	subcs	r6, r6, r2
 8000862:	4675      	movcs	r5, lr
 8000864:	ea40 009c 	orrcs.w	r0, r0, ip, lsr #2
 8000868:	085b      	lsrs	r3, r3, #1
 800086a:	ea4f 0232 	mov.w	r2, r2, rrx
 800086e:	ebb6 0e02 	subs.w	lr, r6, r2
 8000872:	eb75 0e03 	sbcs.w	lr, r5, r3
 8000876:	bf22      	ittt	cs
 8000878:	1ab6      	subcs	r6, r6, r2
 800087a:	4675      	movcs	r5, lr
 800087c:	ea40 00dc 	orrcs.w	r0, r0, ip, lsr #3
 8000880:	ea55 0e06 	orrs.w	lr, r5, r6
 8000884:	d018      	beq.n	80008b8 <__aeabi_ddiv+0x114>
 8000886:	ea4f 1505 	mov.w	r5, r5, lsl #4
 800088a:	ea45 7516 	orr.w	r5, r5, r6, lsr #28
 800088e:	ea4f 1606 	mov.w	r6, r6, lsl #4
 8000892:	ea4f 03c3 	mov.w	r3, r3, lsl #3
 8000896:	ea43 7352 	orr.w	r3, r3, r2, lsr #29
 800089a:	ea4f 02c2 	mov.w	r2, r2, lsl #3
 800089e:	ea5f 1c1c 	movs.w	ip, ip, lsr #4
 80008a2:	d1c0      	bne.n	8000826 <__aeabi_ddiv+0x82>
 80008a4:	f411 1f80 	tst.w	r1, #1048576	; 0x100000
 80008a8:	d10b      	bne.n	80008c2 <__aeabi_ddiv+0x11e>
 80008aa:	ea41 0100 	orr.w	r1, r1, r0
 80008ae:	f04f 0000 	mov.w	r0, #0
 80008b2:	f04f 4c00 	mov.w	ip, #2147483648	; 0x80000000
 80008b6:	e7b6      	b.n	8000826 <__aeabi_ddiv+0x82>
 80008b8:	f411 1f80 	tst.w	r1, #1048576	; 0x100000
 80008bc:	bf04      	itt	eq
 80008be:	4301      	orreq	r1, r0
 80008c0:	2000      	moveq	r0, #0
 80008c2:	f1b4 0cfd 	subs.w	ip, r4, #253	; 0xfd
 80008c6:	bf88      	it	hi
 80008c8:	f5bc 6fe0 	cmphi.w	ip, #1792	; 0x700
 80008cc:	f63f aeaf 	bhi.w	800062e <__aeabi_dmul+0xde>
 80008d0:	ebb5 0c03 	subs.w	ip, r5, r3
 80008d4:	bf04      	itt	eq
 80008d6:	ebb6 0c02 	subseq.w	ip, r6, r2
 80008da:	ea5f 0c50 	movseq.w	ip, r0, lsr #1
 80008de:	f150 0000 	adcs.w	r0, r0, #0
 80008e2:	eb41 5104 	adc.w	r1, r1, r4, lsl #20
 80008e6:	bd70      	pop	{r4, r5, r6, pc}
 80008e8:	f00e 4e00 	and.w	lr, lr, #2147483648	; 0x80000000
 80008ec:	ea4e 3111 	orr.w	r1, lr, r1, lsr #12
 80008f0:	eb14 045c 	adds.w	r4, r4, ip, lsr #1
 80008f4:	bfc2      	ittt	gt
 80008f6:	ebd4 050c 	rsbsgt	r5, r4, ip
 80008fa:	ea41 5104 	orrgt.w	r1, r1, r4, lsl #20
 80008fe:	bd70      	popgt	{r4, r5, r6, pc}
 8000900:	f441 1180 	orr.w	r1, r1, #1048576	; 0x100000
 8000904:	f04f 0e00 	mov.w	lr, #0
 8000908:	3c01      	subs	r4, #1
 800090a:	e690      	b.n	800062e <__aeabi_dmul+0xde>
 800090c:	ea45 0e06 	orr.w	lr, r5, r6
 8000910:	e68d      	b.n	800062e <__aeabi_dmul+0xde>
 8000912:	ea0c 5513 	and.w	r5, ip, r3, lsr #20
 8000916:	ea94 0f0c 	teq	r4, ip
 800091a:	bf08      	it	eq
 800091c:	ea95 0f0c 	teqeq	r5, ip
 8000920:	f43f af3b 	beq.w	800079a <__aeabi_dmul+0x24a>
 8000924:	ea94 0f0c 	teq	r4, ip
 8000928:	d10a      	bne.n	8000940 <__aeabi_ddiv+0x19c>
 800092a:	ea50 3401 	orrs.w	r4, r0, r1, lsl #12
 800092e:	f47f af34 	bne.w	800079a <__aeabi_dmul+0x24a>
 8000932:	ea95 0f0c 	teq	r5, ip
 8000936:	f47f af25 	bne.w	8000784 <__aeabi_dmul+0x234>
 800093a:	4610      	mov	r0, r2
 800093c:	4619      	mov	r1, r3
 800093e:	e72c      	b.n	800079a <__aeabi_dmul+0x24a>
 8000940:	ea95 0f0c 	teq	r5, ip
 8000944:	d106      	bne.n	8000954 <__aeabi_ddiv+0x1b0>
 8000946:	ea52 3503 	orrs.w	r5, r2, r3, lsl #12
 800094a:	f43f aefd 	beq.w	8000748 <__aeabi_dmul+0x1f8>
 800094e:	4610      	mov	r0, r2
 8000950:	4619      	mov	r1, r3
 8000952:	e722      	b.n	800079a <__aeabi_dmul+0x24a>
 8000954:	ea50 0641 	orrs.w	r6, r0, r1, lsl #1
 8000958:	bf18      	it	ne
 800095a:	ea52 0643 	orrsne.w	r6, r2, r3, lsl #1
 800095e:	f47f aec5 	bne.w	80006ec <__aeabi_dmul+0x19c>
 8000962:	ea50 0441 	orrs.w	r4, r0, r1, lsl #1
 8000966:	f47f af0d 	bne.w	8000784 <__aeabi_dmul+0x234>
 800096a:	ea52 0543 	orrs.w	r5, r2, r3, lsl #1
 800096e:	f47f aeeb 	bne.w	8000748 <__aeabi_dmul+0x1f8>
 8000972:	e712      	b.n	800079a <__aeabi_dmul+0x24a>

08000974 <__gedf2>:
 8000974:	f04f 3cff 	mov.w	ip, #4294967295
 8000978:	e006      	b.n	8000988 <__cmpdf2+0x4>
 800097a:	bf00      	nop

0800097c <__ledf2>:
 800097c:	f04f 0c01 	mov.w	ip, #1
 8000980:	e002      	b.n	8000988 <__cmpdf2+0x4>
 8000982:	bf00      	nop

08000984 <__cmpdf2>:
 8000984:	f04f 0c01 	mov.w	ip, #1
 8000988:	f84d cd04 	str.w	ip, [sp, #-4]!
 800098c:	ea4f 0c41 	mov.w	ip, r1, lsl #1
 8000990:	ea7f 5c6c 	mvns.w	ip, ip, asr #21
 8000994:	ea4f 0c43 	mov.w	ip, r3, lsl #1
 8000998:	bf18      	it	ne
 800099a:	ea7f 5c6c 	mvnsne.w	ip, ip, asr #21
 800099e:	d01b      	beq.n	80009d8 <__cmpdf2+0x54>
 80009a0:	b001      	add	sp, #4
 80009a2:	ea50 0c41 	orrs.w	ip, r0, r1, lsl #1
 80009a6:	bf0c      	ite	eq
 80009a8:	ea52 0c43 	orrseq.w	ip, r2, r3, lsl #1
 80009ac:	ea91 0f03 	teqne	r1, r3
 80009b0:	bf02      	ittt	eq
 80009b2:	ea90 0f02 	teqeq	r0, r2
 80009b6:	2000      	moveq	r0, #0
 80009b8:	4770      	bxeq	lr
 80009ba:	f110 0f00 	cmn.w	r0, #0
 80009be:	ea91 0f03 	teq	r1, r3
 80009c2:	bf58      	it	pl
 80009c4:	4299      	cmppl	r1, r3
 80009c6:	bf08      	it	eq
 80009c8:	4290      	cmpeq	r0, r2
 80009ca:	bf2c      	ite	cs
 80009cc:	17d8      	asrcs	r0, r3, #31
 80009ce:	ea6f 70e3 	mvncc.w	r0, r3, asr #31
 80009d2:	f040 0001 	orr.w	r0, r0, #1
 80009d6:	4770      	bx	lr
 80009d8:	ea4f 0c41 	mov.w	ip, r1, lsl #1
 80009dc:	ea7f 5c6c 	mvns.w	ip, ip, asr #21
 80009e0:	d102      	bne.n	80009e8 <__cmpdf2+0x64>
 80009e2:	ea50 3c01 	orrs.w	ip, r0, r1, lsl #12
 80009e6:	d107      	bne.n	80009f8 <__cmpdf2+0x74>
 80009e8:	ea4f 0c43 	mov.w	ip, r3, lsl #1
 80009ec:	ea7f 5c6c 	mvns.w	ip, ip, asr #21
 80009f0:	d1d6      	bne.n	80009a0 <__cmpdf2+0x1c>
 80009f2:	ea52 3c03 	orrs.w	ip, r2, r3, lsl #12
 80009f6:	d0d3      	beq.n	80009a0 <__cmpdf2+0x1c>
 80009f8:	f85d 0b04 	ldr.w	r0, [sp], #4
 80009fc:	4770      	bx	lr
 80009fe:	bf00      	nop

08000a00 <__aeabi_cdrcmple>:
 8000a00:	4684      	mov	ip, r0
 8000a02:	4610      	mov	r0, r2
 8000a04:	4662      	mov	r2, ip
 8000a06:	468c      	mov	ip, r1
 8000a08:	4619      	mov	r1, r3
 8000a0a:	4663      	mov	r3, ip
 8000a0c:	e000      	b.n	8000a10 <__aeabi_cdcmpeq>
 8000a0e:	bf00      	nop

08000a10 <__aeabi_cdcmpeq>:
 8000a10:	b501      	push	{r0, lr}
 8000a12:	f7ff ffb7 	bl	8000984 <__cmpdf2>
 8000a16:	2800      	cmp	r0, #0
 8000a18:	bf48      	it	mi
 8000a1a:	f110 0f00 	cmnmi.w	r0, #0
 8000a1e:	bd01      	pop	{r0, pc}

08000a20 <__aeabi_dcmpeq>:
 8000a20:	f84d ed08 	str.w	lr, [sp, #-8]!
 8000a24:	f7ff fff4 	bl	8000a10 <__aeabi_cdcmpeq>
 8000a28:	bf0c      	ite	eq
 8000a2a:	2001      	moveq	r0, #1
 8000a2c:	2000      	movne	r0, #0
 8000a2e:	f85d fb08 	ldr.w	pc, [sp], #8
 8000a32:	bf00      	nop

08000a34 <__aeabi_dcmplt>:
 8000a34:	f84d ed08 	str.w	lr, [sp, #-8]!
 8000a38:	f7ff ffea 	bl	8000a10 <__aeabi_cdcmpeq>
 8000a3c:	bf34      	ite	cc
 8000a3e:	2001      	movcc	r0, #1
 8000a40:	2000      	movcs	r0, #0
 8000a42:	f85d fb08 	ldr.w	pc, [sp], #8
 8000a46:	bf00      	nop

08000a48 <__aeabi_dcmple>:
 8000a48:	f84d ed08 	str.w	lr, [sp, #-8]!
 8000a4c:	f7ff ffe0 	bl	8000a10 <__aeabi_cdcmpeq>
 8000a50:	bf94      	ite	ls
 8000a52:	2001      	movls	r0, #1
 8000a54:	2000      	movhi	r0, #0
 8000a56:	f85d fb08 	ldr.w	pc, [sp], #8
 8000a5a:	bf00      	nop

08000a5c <__aeabi_dcmpge>:
 8000a5c:	f84d ed08 	str.w	lr, [sp, #-8]!
 8000a60:	f7ff ffce 	bl	8000a00 <__aeabi_cdrcmple>
 8000a64:	bf94      	ite	ls
 8000a66:	2001      	movls	r0, #1
 8000a68:	2000      	movhi	r0, #0
 8000a6a:	f85d fb08 	ldr.w	pc, [sp], #8
 8000a6e:	bf00      	nop

08000a70 <__aeabi_dcmpgt>:
 8000a70:	f84d ed08 	str.w	lr, [sp, #-8]!
 8000a74:	f7ff ffc4 	bl	8000a00 <__aeabi_cdrcmple>
 8000a78:	bf34      	ite	cc
 8000a7a:	2001      	movcc	r0, #1
 8000a7c:	2000      	movcs	r0, #0
 8000a7e:	f85d fb08 	ldr.w	pc, [sp], #8
 8000a82:	bf00      	nop

08000a84 <__aeabi_dcmpun>:
 8000a84:	ea4f 0c41 	mov.w	ip, r1, lsl #1
 8000a88:	ea7f 5c6c 	mvns.w	ip, ip, asr #21
 8000a8c:	d102      	bne.n	8000a94 <__aeabi_dcmpun+0x10>
 8000a8e:	ea50 3c01 	orrs.w	ip, r0, r1, lsl #12
 8000a92:	d10a      	bne.n	8000aaa <__aeabi_dcmpun+0x26>
 8000a94:	ea4f 0c43 	mov.w	ip, r3, lsl #1
 8000a98:	ea7f 5c6c 	mvns.w	ip, ip, asr #21
 8000a9c:	d102      	bne.n	8000aa4 <__aeabi_dcmpun+0x20>
 8000a9e:	ea52 3c03 	orrs.w	ip, r2, r3, lsl #12
 8000aa2:	d102      	bne.n	8000aaa <__aeabi_dcmpun+0x26>
 8000aa4:	f04f 0000 	mov.w	r0, #0
 8000aa8:	4770      	bx	lr
 8000aaa:	f04f 0001 	mov.w	r0, #1
 8000aae:	4770      	bx	lr

08000ab0 <__aeabi_d2f>:
 8000ab0:	ea4f 0241 	mov.w	r2, r1, lsl #1
 8000ab4:	f1b2 43e0 	subs.w	r3, r2, #1879048192	; 0x70000000
 8000ab8:	bf24      	itt	cs
 8000aba:	f5b3 1c00 	subscs.w	ip, r3, #2097152	; 0x200000
 8000abe:	f1dc 5cfe 	rsbscs	ip, ip, #532676608	; 0x1fc00000
 8000ac2:	d90d      	bls.n	8000ae0 <__aeabi_d2f+0x30>
 8000ac4:	f001 4c00 	and.w	ip, r1, #2147483648	; 0x80000000
 8000ac8:	ea4f 02c0 	mov.w	r2, r0, lsl #3
 8000acc:	ea4c 7050 	orr.w	r0, ip, r0, lsr #29
 8000ad0:	f1b2 4f00 	cmp.w	r2, #2147483648	; 0x80000000
 8000ad4:	eb40 0083 	adc.w	r0, r0, r3, lsl #2
 8000ad8:	bf08      	it	eq
 8000ada:	f020 0001 	biceq.w	r0, r0, #1
 8000ade:	4770      	bx	lr
 8000ae0:	f011 4f80 	tst.w	r1, #1073741824	; 0x40000000
 8000ae4:	d121      	bne.n	8000b2a <__aeabi_d2f+0x7a>
 8000ae6:	f113 7238 	adds.w	r2, r3, #48234496	; 0x2e00000
 8000aea:	bfbc      	itt	lt
 8000aec:	f001 4000 	andlt.w	r0, r1, #2147483648	; 0x80000000
 8000af0:	4770      	bxlt	lr
 8000af2:	f441 1180 	orr.w	r1, r1, #1048576	; 0x100000
 8000af6:	ea4f 5252 	mov.w	r2, r2, lsr #21
 8000afa:	f1c2 0218 	rsb	r2, r2, #24
 8000afe:	f1c2 0c20 	rsb	ip, r2, #32
 8000b02:	fa10 f30c 	lsls.w	r3, r0, ip
 8000b06:	fa20 f002 	lsr.w	r0, r0, r2
 8000b0a:	bf18      	it	ne
 8000b0c:	f040 0001 	orrne.w	r0, r0, #1
 8000b10:	ea4f 23c1 	mov.w	r3, r1, lsl #11
 8000b14:	ea4f 23d3 	mov.w	r3, r3, lsr #11
 8000b18:	fa03 fc0c 	lsl.w	ip, r3, ip
 8000b1c:	ea40 000c 	orr.w	r0, r0, ip
 8000b20:	fa23 f302 	lsr.w	r3, r3, r2
 8000b24:	ea4f 0343 	mov.w	r3, r3, lsl #1
 8000b28:	e7cc      	b.n	8000ac4 <__aeabi_d2f+0x14>
 8000b2a:	ea7f 5362 	mvns.w	r3, r2, asr #21
 8000b2e:	d107      	bne.n	8000b40 <__aeabi_d2f+0x90>
 8000b30:	ea50 3301 	orrs.w	r3, r0, r1, lsl #12
 8000b34:	bf1e      	ittt	ne
 8000b36:	f04f 40fe 	movne.w	r0, #2130706432	; 0x7f000000
 8000b3a:	f440 0040 	orrne.w	r0, r0, #12582912	; 0xc00000
 8000b3e:	4770      	bxne	lr
 8000b40:	f001 4000 	and.w	r0, r1, #2147483648	; 0x80000000
 8000b44:	f040 40fe 	orr.w	r0, r0, #2130706432	; 0x7f000000
 8000b48:	f440 0000 	orr.w	r0, r0, #8388608	; 0x800000
 8000b4c:	4770      	bx	lr
 8000b4e:	bf00      	nop

08000b50 <__aeabi_uldivmod>:
 8000b50:	b953      	cbnz	r3, 8000b68 <__aeabi_uldivmod+0x18>
 8000b52:	b94a      	cbnz	r2, 8000b68 <__aeabi_uldivmod+0x18>
 8000b54:	2900      	cmp	r1, #0
 8000b56:	bf08      	it	eq
 8000b58:	2800      	cmpeq	r0, #0
 8000b5a:	bf1c      	itt	ne
 8000b5c:	f04f 31ff 	movne.w	r1, #4294967295
 8000b60:	f04f 30ff 	movne.w	r0, #4294967295
 8000b64:	f000 b96e 	b.w	8000e44 <__aeabi_idiv0>
 8000b68:	f1ad 0c08 	sub.w	ip, sp, #8
 8000b6c:	e96d ce04 	strd	ip, lr, [sp, #-16]!
 8000b70:	f000 f806 	bl	8000b80 <__udivmoddi4>
 8000b74:	f8dd e004 	ldr.w	lr, [sp, #4]
 8000b78:	e9dd 2302 	ldrd	r2, r3, [sp, #8]
 8000b7c:	b004      	add	sp, #16
 8000b7e:	4770      	bx	lr

08000b80 <__udivmoddi4>:
 8000b80:	e92d 47f0 	stmdb	sp!, {r4, r5, r6, r7, r8, r9, sl, lr}
 8000b84:	9d08      	ldr	r5, [sp, #32]
 8000b86:	4604      	mov	r4, r0
 8000b88:	468c      	mov	ip, r1
 8000b8a:	2b00      	cmp	r3, #0
 8000b8c:	f040 8083 	bne.w	8000c96 <__udivmoddi4+0x116>
 8000b90:	428a      	cmp	r2, r1
 8000b92:	4617      	mov	r7, r2
 8000b94:	d947      	bls.n	8000c26 <__udivmoddi4+0xa6>
 8000b96:	fab2 f282 	clz	r2, r2
 8000b9a:	b142      	cbz	r2, 8000bae <__udivmoddi4+0x2e>
 8000b9c:	f1c2 0020 	rsb	r0, r2, #32
 8000ba0:	fa24 f000 	lsr.w	r0, r4, r0
 8000ba4:	4091      	lsls	r1, r2
 8000ba6:	4097      	lsls	r7, r2
 8000ba8:	ea40 0c01 	orr.w	ip, r0, r1
 8000bac:	4094      	lsls	r4, r2
 8000bae:	ea4f 4817 	mov.w	r8, r7, lsr #16
 8000bb2:	0c23      	lsrs	r3, r4, #16
 8000bb4:	fbbc f6f8 	udiv	r6, ip, r8
 8000bb8:	fa1f fe87 	uxth.w	lr, r7
 8000bbc:	fb08 c116 	mls	r1, r8, r6, ip
 8000bc0:	ea43 4301 	orr.w	r3, r3, r1, lsl #16
 8000bc4:	fb06 f10e 	mul.w	r1, r6, lr
 8000bc8:	4299      	cmp	r1, r3
 8000bca:	d909      	bls.n	8000be0 <__udivmoddi4+0x60>
 8000bcc:	18fb      	adds	r3, r7, r3
 8000bce:	f106 30ff 	add.w	r0, r6, #4294967295
 8000bd2:	f080 8119 	bcs.w	8000e08 <__udivmoddi4+0x288>
 8000bd6:	4299      	cmp	r1, r3
 8000bd8:	f240 8116 	bls.w	8000e08 <__udivmoddi4+0x288>
 8000bdc:	3e02      	subs	r6, #2
 8000bde:	443b      	add	r3, r7
 8000be0:	1a5b      	subs	r3, r3, r1
 8000be2:	b2a4      	uxth	r4, r4
 8000be4:	fbb3 f0f8 	udiv	r0, r3, r8
 8000be8:	fb08 3310 	mls	r3, r8, r0, r3
 8000bec:	ea44 4403 	orr.w	r4, r4, r3, lsl #16
 8000bf0:	fb00 fe0e 	mul.w	lr, r0, lr
 8000bf4:	45a6      	cmp	lr, r4
 8000bf6:	d909      	bls.n	8000c0c <__udivmoddi4+0x8c>
 8000bf8:	193c      	adds	r4, r7, r4
 8000bfa:	f100 33ff 	add.w	r3, r0, #4294967295
 8000bfe:	f080 8105 	bcs.w	8000e0c <__udivmoddi4+0x28c>
 8000c02:	45a6      	cmp	lr, r4
 8000c04:	f240 8102 	bls.w	8000e0c <__udivmoddi4+0x28c>
 8000c08:	3802      	subs	r0, #2
 8000c0a:	443c      	add	r4, r7
 8000c0c:	ea40 4006 	orr.w	r0, r0, r6, lsl #16
 8000c10:	eba4 040e 	sub.w	r4, r4, lr
 8000c14:	2600      	movs	r6, #0
 8000c16:	b11d      	cbz	r5, 8000c20 <__udivmoddi4+0xa0>
 8000c18:	40d4      	lsrs	r4, r2
 8000c1a:	2300      	movs	r3, #0
 8000c1c:	e9c5 4300 	strd	r4, r3, [r5]
 8000c20:	4631      	mov	r1, r6
 8000c22:	e8bd 87f0 	ldmia.w	sp!, {r4, r5, r6, r7, r8, r9, sl, pc}
 8000c26:	b902      	cbnz	r2, 8000c2a <__udivmoddi4+0xaa>
 8000c28:	deff      	udf	#255	; 0xff
 8000c2a:	fab2 f282 	clz	r2, r2
 8000c2e:	2a00      	cmp	r2, #0
 8000c30:	d150      	bne.n	8000cd4 <__udivmoddi4+0x154>
 8000c32:	1bcb      	subs	r3, r1, r7
 8000c34:	ea4f 4e17 	mov.w	lr, r7, lsr #16
 8000c38:	fa1f f887 	uxth.w	r8, r7
 8000c3c:	2601      	movs	r6, #1
 8000c3e:	fbb3 fcfe 	udiv	ip, r3, lr
 8000c42:	0c21      	lsrs	r1, r4, #16
 8000c44:	fb0e 331c 	mls	r3, lr, ip, r3
 8000c48:	ea41 4103 	orr.w	r1, r1, r3, lsl #16
 8000c4c:	fb08 f30c 	mul.w	r3, r8, ip
 8000c50:	428b      	cmp	r3, r1
 8000c52:	d907      	bls.n	8000c64 <__udivmoddi4+0xe4>
 8000c54:	1879      	adds	r1, r7, r1
 8000c56:	f10c 30ff 	add.w	r0, ip, #4294967295
 8000c5a:	d202      	bcs.n	8000c62 <__udivmoddi4+0xe2>
 8000c5c:	428b      	cmp	r3, r1
 8000c5e:	f200 80e9 	bhi.w	8000e34 <__udivmoddi4+0x2b4>
 8000c62:	4684      	mov	ip, r0
 8000c64:	1ac9      	subs	r1, r1, r3
 8000c66:	b2a3      	uxth	r3, r4
 8000c68:	fbb1 f0fe 	udiv	r0, r1, lr
 8000c6c:	fb0e 1110 	mls	r1, lr, r0, r1
 8000c70:	ea43 4401 	orr.w	r4, r3, r1, lsl #16
 8000c74:	fb08 f800 	mul.w	r8, r8, r0
 8000c78:	45a0      	cmp	r8, r4
 8000c7a:	d907      	bls.n	8000c8c <__udivmoddi4+0x10c>
 8000c7c:	193c      	adds	r4, r7, r4
 8000c7e:	f100 33ff 	add.w	r3, r0, #4294967295
 8000c82:	d202      	bcs.n	8000c8a <__udivmoddi4+0x10a>
 8000c84:	45a0      	cmp	r8, r4
 8000c86:	f200 80d9 	bhi.w	8000e3c <__udivmoddi4+0x2bc>
 8000c8a:	4618      	mov	r0, r3
 8000c8c:	eba4 0408 	sub.w	r4, r4, r8
 8000c90:	ea40 400c 	orr.w	r0, r0, ip, lsl #16
 8000c94:	e7bf      	b.n	8000c16 <__udivmoddi4+0x96>
 8000c96:	428b      	cmp	r3, r1
 8000c98:	d909      	bls.n	8000cae <__udivmoddi4+0x12e>
 8000c9a:	2d00      	cmp	r5, #0
 8000c9c:	f000 80b1 	beq.w	8000e02 <__udivmoddi4+0x282>
 8000ca0:	2600      	movs	r6, #0
 8000ca2:	e9c5 0100 	strd	r0, r1, [r5]
 8000ca6:	4630      	mov	r0, r6
 8000ca8:	4631      	mov	r1, r6
 8000caa:	e8bd 87f0 	ldmia.w	sp!, {r4, r5, r6, r7, r8, r9, sl, pc}
 8000cae:	fab3 f683 	clz	r6, r3
 8000cb2:	2e00      	cmp	r6, #0
 8000cb4:	d14a      	bne.n	8000d4c <__udivmoddi4+0x1cc>
 8000cb6:	428b      	cmp	r3, r1
 8000cb8:	d302      	bcc.n	8000cc0 <__udivmoddi4+0x140>
 8000cba:	4282      	cmp	r2, r0
 8000cbc:	f200 80b8 	bhi.w	8000e30 <__udivmoddi4+0x2b0>
 8000cc0:	1a84      	subs	r4, r0, r2
 8000cc2:	eb61 0103 	sbc.w	r1, r1, r3
 8000cc6:	2001      	movs	r0, #1
 8000cc8:	468c      	mov	ip, r1
 8000cca:	2d00      	cmp	r5, #0
 8000ccc:	d0a8      	beq.n	8000c20 <__udivmoddi4+0xa0>
 8000cce:	e9c5 4c00 	strd	r4, ip, [r5]
 8000cd2:	e7a5      	b.n	8000c20 <__udivmoddi4+0xa0>
 8000cd4:	f1c2 0320 	rsb	r3, r2, #32
 8000cd8:	fa20 f603 	lsr.w	r6, r0, r3
 8000cdc:	4097      	lsls	r7, r2
 8000cde:	fa01 f002 	lsl.w	r0, r1, r2
 8000ce2:	ea4f 4e17 	mov.w	lr, r7, lsr #16
 8000ce6:	40d9      	lsrs	r1, r3
 8000ce8:	4330      	orrs	r0, r6
 8000cea:	0c03      	lsrs	r3, r0, #16
 8000cec:	fbb1 f6fe 	udiv	r6, r1, lr
 8000cf0:	fa1f f887 	uxth.w	r8, r7
 8000cf4:	fb0e 1116 	mls	r1, lr, r6, r1
 8000cf8:	ea43 4301 	orr.w	r3, r3, r1, lsl #16
 8000cfc:	fb06 f108 	mul.w	r1, r6, r8
 8000d00:	4299      	cmp	r1, r3
 8000d02:	fa04 f402 	lsl.w	r4, r4, r2
 8000d06:	d909      	bls.n	8000d1c <__udivmoddi4+0x19c>
 8000d08:	18fb      	adds	r3, r7, r3
 8000d0a:	f106 3cff 	add.w	ip, r6, #4294967295
 8000d0e:	f080 808d 	bcs.w	8000e2c <__udivmoddi4+0x2ac>
 8000d12:	4299      	cmp	r1, r3
 8000d14:	f240 808a 	bls.w	8000e2c <__udivmoddi4+0x2ac>
 8000d18:	3e02      	subs	r6, #2
 8000d1a:	443b      	add	r3, r7
 8000d1c:	1a5b      	subs	r3, r3, r1
 8000d1e:	b281      	uxth	r1, r0
 8000d20:	fbb3 f0fe 	udiv	r0, r3, lr
 8000d24:	fb0e 3310 	mls	r3, lr, r0, r3
 8000d28:	ea41 4103 	orr.w	r1, r1, r3, lsl #16
 8000d2c:	fb00 f308 	mul.w	r3, r0, r8
 8000d30:	428b      	cmp	r3, r1
 8000d32:	d907      	bls.n	8000d44 <__udivmoddi4+0x1c4>
 8000d34:	1879      	adds	r1, r7, r1
 8000d36:	f100 3cff 	add.w	ip, r0, #4294967295
 8000d3a:	d273      	bcs.n	8000e24 <__udivmoddi4+0x2a4>
 8000d3c:	428b      	cmp	r3, r1
 8000d3e:	d971      	bls.n	8000e24 <__udivmoddi4+0x2a4>
 8000d40:	3802      	subs	r0, #2
 8000d42:	4439      	add	r1, r7
 8000d44:	1acb      	subs	r3, r1, r3
 8000d46:	ea40 4606 	orr.w	r6, r0, r6, lsl #16
 8000d4a:	e778      	b.n	8000c3e <__udivmoddi4+0xbe>
 8000d4c:	f1c6 0c20 	rsb	ip, r6, #32
 8000d50:	fa03 f406 	lsl.w	r4, r3, r6
 8000d54:	fa22 f30c 	lsr.w	r3, r2, ip
 8000d58:	431c      	orrs	r4, r3
 8000d5a:	fa20 f70c 	lsr.w	r7, r0, ip
 8000d5e:	fa01 f306 	lsl.w	r3, r1, r6
 8000d62:	ea4f 4e14 	mov.w	lr, r4, lsr #16
 8000d66:	fa21 f10c 	lsr.w	r1, r1, ip
 8000d6a:	431f      	orrs	r7, r3
 8000d6c:	0c3b      	lsrs	r3, r7, #16
 8000d6e:	fbb1 f9fe 	udiv	r9, r1, lr
 8000d72:	fa1f f884 	uxth.w	r8, r4
 8000d76:	fb0e 1119 	mls	r1, lr, r9, r1
 8000d7a:	ea43 4101 	orr.w	r1, r3, r1, lsl #16
 8000d7e:	fb09 fa08 	mul.w	sl, r9, r8
 8000d82:	458a      	cmp	sl, r1
 8000d84:	fa02 f206 	lsl.w	r2, r2, r6
 8000d88:	fa00 f306 	lsl.w	r3, r0, r6
 8000d8c:	d908      	bls.n	8000da0 <__udivmoddi4+0x220>
 8000d8e:	1861      	adds	r1, r4, r1
 8000d90:	f109 30ff 	add.w	r0, r9, #4294967295
 8000d94:	d248      	bcs.n	8000e28 <__udivmoddi4+0x2a8>
 8000d96:	458a      	cmp	sl, r1
 8000d98:	d946      	bls.n	8000e28 <__udivmoddi4+0x2a8>
 8000d9a:	f1a9 0902 	sub.w	r9, r9, #2
 8000d9e:	4421      	add	r1, r4
 8000da0:	eba1 010a 	sub.w	r1, r1, sl
 8000da4:	b2bf      	uxth	r7, r7
 8000da6:	fbb1 f0fe 	udiv	r0, r1, lr
 8000daa:	fb0e 1110 	mls	r1, lr, r0, r1
 8000dae:	ea47 4701 	orr.w	r7, r7, r1, lsl #16
 8000db2:	fb00 f808 	mul.w	r8, r0, r8
 8000db6:	45b8      	cmp	r8, r7
 8000db8:	d907      	bls.n	8000dca <__udivmoddi4+0x24a>
 8000dba:	19e7      	adds	r7, r4, r7
 8000dbc:	f100 31ff 	add.w	r1, r0, #4294967295
 8000dc0:	d22e      	bcs.n	8000e20 <__udivmoddi4+0x2a0>
 8000dc2:	45b8      	cmp	r8, r7
 8000dc4:	d92c      	bls.n	8000e20 <__udivmoddi4+0x2a0>
 8000dc6:	3802      	subs	r0, #2
 8000dc8:	4427      	add	r7, r4
 8000dca:	ea40 4009 	orr.w	r0, r0, r9, lsl #16
 8000dce:	eba7 0708 	sub.w	r7, r7, r8
 8000dd2:	fba0 8902 	umull	r8, r9, r0, r2
 8000dd6:	454f      	cmp	r7, r9
 8000dd8:	46c6      	mov	lr, r8
 8000dda:	4649      	mov	r1, r9
 8000ddc:	d31a      	bcc.n	8000e14 <__udivmoddi4+0x294>
 8000dde:	d017      	beq.n	8000e10 <__udivmoddi4+0x290>
 8000de0:	b15d      	cbz	r5, 8000dfa <__udivmoddi4+0x27a>
 8000de2:	ebb3 020e 	subs.w	r2, r3, lr
 8000de6:	eb67 0701 	sbc.w	r7, r7, r1
 8000dea:	fa07 fc0c 	lsl.w	ip, r7, ip
 8000dee:	40f2      	lsrs	r2, r6
 8000df0:	ea4c 0202 	orr.w	r2, ip, r2
 8000df4:	40f7      	lsrs	r7, r6
 8000df6:	e9c5 2700 	strd	r2, r7, [r5]
 8000dfa:	2600      	movs	r6, #0
 8000dfc:	4631      	mov	r1, r6
 8000dfe:	e8bd 87f0 	ldmia.w	sp!, {r4, r5, r6, r7, r8, r9, sl, pc}
 8000e02:	462e      	mov	r6, r5
 8000e04:	4628      	mov	r0, r5
 8000e06:	e70b      	b.n	8000c20 <__udivmoddi4+0xa0>
 8000e08:	4606      	mov	r6, r0
 8000e0a:	e6e9      	b.n	8000be0 <__udivmoddi4+0x60>
 8000e0c:	4618      	mov	r0, r3
 8000e0e:	e6fd      	b.n	8000c0c <__udivmoddi4+0x8c>
 8000e10:	4543      	cmp	r3, r8
 8000e12:	d2e5      	bcs.n	8000de0 <__udivmoddi4+0x260>
 8000e14:	ebb8 0e02 	subs.w	lr, r8, r2
 8000e18:	eb69 0104 	sbc.w	r1, r9, r4
 8000e1c:	3801      	subs	r0, #1
 8000e1e:	e7df      	b.n	8000de0 <__udivmoddi4+0x260>
 8000e20:	4608      	mov	r0, r1
 8000e22:	e7d2      	b.n	8000dca <__udivmoddi4+0x24a>
 8000e24:	4660      	mov	r0, ip
 8000e26:	e78d      	b.n	8000d44 <__udivmoddi4+0x1c4>
 8000e28:	4681      	mov	r9, r0
 8000e2a:	e7b9      	b.n	8000da0 <__udivmoddi4+0x220>
 8000e2c:	4666      	mov	r6, ip
 8000e2e:	e775      	b.n	8000d1c <__udivmoddi4+0x19c>
 8000e30:	4630      	mov	r0, r6
 8000e32:	e74a      	b.n	8000cca <__udivmoddi4+0x14a>
 8000e34:	f1ac 0c02 	sub.w	ip, ip, #2
 8000e38:	4439      	add	r1, r7
 8000e3a:	e713      	b.n	8000c64 <__udivmoddi4+0xe4>
 8000e3c:	3802      	subs	r0, #2
 8000e3e:	443c      	add	r4, r7
 8000e40:	e724      	b.n	8000c8c <__udivmoddi4+0x10c>
 8000e42:	bf00      	nop

08000e44 <__aeabi_idiv0>:
 8000e44:	4770      	bx	lr
 8000e46:	bf00      	nop

08000e48 <PID>:
 8000e48:	b5f8      	push	{r3, r4, r5, r6, r7, lr}
 8000e4a:	4c38      	ldr	r4, [pc, #224]	; (8000f2c <PID+0xe4>)
 8000e4c:	ed2d 8b04 	vpush	{d8-d9}
 8000e50:	ee30 9a60 	vsub.f32	s18, s0, s1
 8000e54:	eef3 7a01 	vmov.f32	s15, #49	; 0x41880000  17.0
 8000e58:	2801      	cmp	r0, #1
 8000e5a:	ee29 8a27 	vmul.f32	s16, s18, s15
 8000e5e:	edd4 8a00 	vldr	s17, [r4]
 8000e62:	4605      	mov	r5, r0
 8000e64:	d134      	bne.n	8000ed0 <PID+0x88>
 8000e66:	eef1 7a00 	vmov.f32	s15, #16	; 0x40800000  4.0
 8000e6a:	eee9 8a27 	vfma.f32	s17, s18, s15
 8000e6e:	eef0 7a68 	vmov.f32	s15, s17
 8000e72:	eddf 6a2f 	vldr	s13, [pc, #188]	; 8000f30 <PID+0xe8>
 8000e76:	eef4 7ae6 	vcmpe.f32	s15, s13
 8000e7a:	eef1 fa10 	vmrs	APSR_nzcv, fpscr
 8000e7e:	dd40      	ble.n	8000f02 <PID+0xba>
 8000e80:	edc4 6a00 	vstr	s13, [r4]
 8000e84:	4b2b      	ldr	r3, [pc, #172]	; (8000f34 <PID+0xec>)
 8000e86:	edd3 7a00 	vldr	s15, [r3]
 8000e8a:	2d00      	cmp	r5, #0
 8000e8c:	d045      	beq.n	8000f1a <PID+0xd2>
 8000e8e:	ee79 7a67 	vsub.f32	s15, s18, s15
 8000e92:	eeb9 7a04 	vmov.f32	s14, #148	; 0xc0a00000 -5.0
 8000e96:	ee27 7a87 	vmul.f32	s14, s15, s14
 8000e9a:	edd4 7a00 	vldr	s15, [r4]
 8000e9e:	ee78 7a27 	vadd.f32	s15, s16, s15
 8000ea2:	ee77 7a87 	vadd.f32	s15, s15, s14
 8000ea6:	eef4 7ae6 	vcmpe.f32	s15, s13
 8000eaa:	eef1 fa10 	vmrs	APSR_nzcv, fpscr
 8000eae:	dc37      	bgt.n	8000f20 <PID+0xd8>
 8000eb0:	ed9f 7a21 	vldr	s14, [pc, #132]	; 8000f38 <PID+0xf0>
 8000eb4:	eef4 7ac7 	vcmpe.f32	s15, s14
 8000eb8:	eef1 fa10 	vmrs	APSR_nzcv, fpscr
 8000ebc:	d432      	bmi.n	8000f24 <PID+0xdc>
 8000ebe:	eefd 7ae7 	vcvt.s32.f32	s15, s15
 8000ec2:	ee17 0a90 	vmov	r0, s15
 8000ec6:	ed83 9a00 	vstr	s18, [r3]
 8000eca:	ecbd 8b04 	vpop	{d8-d9}
 8000ece:	bdf8      	pop	{r3, r4, r5, r6, r7, pc}
 8000ed0:	ee19 0a10 	vmov	r0, s18
 8000ed4:	f7ff fae4 	bl	80004a0 <__aeabi_f2d>
 8000ed8:	4b18      	ldr	r3, [pc, #96]	; (8000f3c <PID+0xf4>)
 8000eda:	2200      	movs	r2, #0
 8000edc:	f7ff fb38 	bl	8000550 <__aeabi_dmul>
 8000ee0:	4606      	mov	r6, r0
 8000ee2:	ee18 0a90 	vmov	r0, s17
 8000ee6:	460f      	mov	r7, r1
 8000ee8:	f7ff fada 	bl	80004a0 <__aeabi_f2d>
 8000eec:	4602      	mov	r2, r0
 8000eee:	460b      	mov	r3, r1
 8000ef0:	4630      	mov	r0, r6
 8000ef2:	4639      	mov	r1, r7
 8000ef4:	f7ff f976 	bl	80001e4 <__adddf3>
 8000ef8:	f7ff fdda 	bl	8000ab0 <__aeabi_d2f>
 8000efc:	ee07 0a90 	vmov	s15, r0
 8000f00:	e7b7      	b.n	8000e72 <PID+0x2a>
 8000f02:	ed9f 7a0d 	vldr	s14, [pc, #52]	; 8000f38 <PID+0xf0>
 8000f06:	eef4 7ac7 	vcmpe.f32	s15, s14
 8000f0a:	eef1 fa10 	vmrs	APSR_nzcv, fpscr
 8000f0e:	bf48      	it	mi
 8000f10:	eef0 7a47 	vmovmi.f32	s15, s14
 8000f14:	edc4 7a00 	vstr	s15, [r4]
 8000f18:	e7b4      	b.n	8000e84 <PID+0x3c>
 8000f1a:	ed9f 7a09 	vldr	s14, [pc, #36]	; 8000f40 <PID+0xf8>
 8000f1e:	e7bc      	b.n	8000e9a <PID+0x52>
 8000f20:	2046      	movs	r0, #70	; 0x46
 8000f22:	e7d0      	b.n	8000ec6 <PID+0x7e>
 8000f24:	f06f 0045 	mvn.w	r0, #69	; 0x45
 8000f28:	e7cd      	b.n	8000ec6 <PID+0x7e>
 8000f2a:	bf00      	nop
 8000f2c:	20000094 	.word	0x20000094
 8000f30:	428c0000 	.word	0x428c0000
 8000f34:	20000098 	.word	0x20000098
 8000f38:	c28c0000 	.word	0xc28c0000
 8000f3c:	3fe00000 	.word	0x3fe00000
 8000f40:	00000000 	.word	0x00000000

08000f44 <set_accel_axes>:
 8000f44:	8001      	strh	r1, [r0, #0]
 8000f46:	8042      	strh	r2, [r0, #2]
 8000f48:	8083      	strh	r3, [r0, #4]
 8000f4a:	4770      	bx	lr

08000f4c <get_ax>:
 8000f4c:	f9b0 0000 	ldrsh.w	r0, [r0]
 8000f50:	4770      	bx	lr

08000f52 <get_ay>:
 8000f52:	f9b0 0002 	ldrsh.w	r0, [r0, #2]
 8000f56:	4770      	bx	lr

08000f58 <get_az>:
 8000f58:	f9b0 0004 	ldrsh.w	r0, [r0, #4]
 8000f5c:	4770      	bx	lr
	...

08000f60 <MX_ADC1_Init>:
 8000f60:	b530      	push	{r4, r5, lr}
 8000f62:	b085      	sub	sp, #20
 8000f64:	2210      	movs	r2, #16
 8000f66:	2100      	movs	r1, #0
 8000f68:	4668      	mov	r0, sp
 8000f6a:	f002 ff3d 	bl	8003de8 <memset>
 8000f6e:	4813      	ldr	r0, [pc, #76]	; (8000fbc <MX_ADC1_Init+0x5c>)
 8000f70:	4b13      	ldr	r3, [pc, #76]	; (8000fc0 <MX_ADC1_Init+0x60>)
 8000f72:	2400      	movs	r4, #0
 8000f74:	e9c0 3400 	strd	r3, r4, [r0]
 8000f78:	f04f 7300 	mov.w	r3, #33554432	; 0x2000000
 8000f7c:	2501      	movs	r5, #1
 8000f7e:	6083      	str	r3, [r0, #8]
 8000f80:	4b10      	ldr	r3, [pc, #64]	; (8000fc4 <MX_ADC1_Init+0x64>)
 8000f82:	6104      	str	r4, [r0, #16]
 8000f84:	7604      	strb	r4, [r0, #24]
 8000f86:	f880 4020 	strb.w	r4, [r0, #32]
 8000f8a:	62c4      	str	r4, [r0, #44]	; 0x2c
 8000f8c:	6283      	str	r3, [r0, #40]	; 0x28
 8000f8e:	60c4      	str	r4, [r0, #12]
 8000f90:	61c5      	str	r5, [r0, #28]
 8000f92:	f880 5030 	strb.w	r5, [r0, #48]	; 0x30
 8000f96:	6145      	str	r5, [r0, #20]
 8000f98:	f000 ff60 	bl	8001e5c <HAL_ADC_Init>
 8000f9c:	b108      	cbz	r0, 8000fa2 <MX_ADC1_Init+0x42>
 8000f9e:	f000 fb53 	bl	8001648 <Error_Handler>
 8000fa2:	4806      	ldr	r0, [pc, #24]	; (8000fbc <MX_ADC1_Init+0x5c>)
 8000fa4:	9402      	str	r4, [sp, #8]
 8000fa6:	4669      	mov	r1, sp
 8000fa8:	e9cd 4500 	strd	r4, r5, [sp]
 8000fac:	f001 f8da 	bl	8002164 <HAL_ADC_ConfigChannel>
 8000fb0:	b108      	cbz	r0, 8000fb6 <MX_ADC1_Init+0x56>
 8000fb2:	f000 fb49 	bl	8001648 <Error_Handler>
 8000fb6:	b005      	add	sp, #20
 8000fb8:	bd30      	pop	{r4, r5, pc}
 8000fba:	bf00      	nop
 8000fbc:	200000b4 	.word	0x200000b4
 8000fc0:	40012000 	.word	0x40012000
 8000fc4:	0f000001 	.word	0x0f000001

08000fc8 <HAL_ADC_MspInit>:
 8000fc8:	b570      	push	{r4, r5, r6, lr}
 8000fca:	4606      	mov	r6, r0
 8000fcc:	b088      	sub	sp, #32
 8000fce:	2214      	movs	r2, #20
 8000fd0:	2100      	movs	r1, #0
 8000fd2:	a803      	add	r0, sp, #12
 8000fd4:	f002 ff08 	bl	8003de8 <memset>
 8000fd8:	6832      	ldr	r2, [r6, #0]
 8000fda:	4b20      	ldr	r3, [pc, #128]	; (800105c <HAL_ADC_MspInit+0x94>)
 8000fdc:	429a      	cmp	r2, r3
 8000fde:	d13b      	bne.n	8001058 <HAL_ADC_MspInit+0x90>
 8000fe0:	2500      	movs	r5, #0
 8000fe2:	f503 338c 	add.w	r3, r3, #71680	; 0x11800
 8000fe6:	9501      	str	r5, [sp, #4]
 8000fe8:	6c5a      	ldr	r2, [r3, #68]	; 0x44
 8000fea:	481d      	ldr	r0, [pc, #116]	; (8001060 <HAL_ADC_MspInit+0x98>)
 8000fec:	4c1d      	ldr	r4, [pc, #116]	; (8001064 <HAL_ADC_MspInit+0x9c>)
 8000fee:	f442 7280 	orr.w	r2, r2, #256	; 0x100
 8000ff2:	645a      	str	r2, [r3, #68]	; 0x44
 8000ff4:	6c5a      	ldr	r2, [r3, #68]	; 0x44
 8000ff6:	f402 7280 	and.w	r2, r2, #256	; 0x100
 8000ffa:	9201      	str	r2, [sp, #4]
 8000ffc:	9a01      	ldr	r2, [sp, #4]
 8000ffe:	9502      	str	r5, [sp, #8]
 8001000:	6b1a      	ldr	r2, [r3, #48]	; 0x30
 8001002:	f042 0201 	orr.w	r2, r2, #1
 8001006:	631a      	str	r2, [r3, #48]	; 0x30
 8001008:	6b1b      	ldr	r3, [r3, #48]	; 0x30
 800100a:	9505      	str	r5, [sp, #20]
 800100c:	f003 0301 	and.w	r3, r3, #1
 8001010:	9302      	str	r3, [sp, #8]
 8001012:	9b02      	ldr	r3, [sp, #8]
 8001014:	2201      	movs	r2, #1
 8001016:	2303      	movs	r3, #3
 8001018:	a903      	add	r1, sp, #12
 800101a:	e9cd 2303 	strd	r2, r3, [sp, #12]
 800101e:	f001 fb29 	bl	8002674 <HAL_GPIO_Init>
 8001022:	4b11      	ldr	r3, [pc, #68]	; (8001068 <HAL_ADC_MspInit+0xa0>)
 8001024:	f44f 6180 	mov.w	r1, #1024	; 0x400
 8001028:	e9c4 3500 	strd	r3, r5, [r4]
 800102c:	f44f 6300 	mov.w	r3, #2048	; 0x800
 8001030:	f44f 5000 	mov.w	r0, #8192	; 0x2000
 8001034:	e9c4 1304 	strd	r1, r3, [r4, #16]
 8001038:	f44f 7380 	mov.w	r3, #256	; 0x100
 800103c:	e9c4 0306 	strd	r0, r3, [r4, #24]
 8001040:	4620      	mov	r0, r4
 8001042:	e9c4 5502 	strd	r5, r5, [r4, #8]
 8001046:	e9c4 5508 	strd	r5, r5, [r4, #32]
 800104a:	f001 f99b 	bl	8002384 <HAL_DMA_Init>
 800104e:	b108      	cbz	r0, 8001054 <HAL_ADC_MspInit+0x8c>
 8001050:	f000 fafa 	bl	8001648 <Error_Handler>
 8001054:	63b4      	str	r4, [r6, #56]	; 0x38
 8001056:	63a6      	str	r6, [r4, #56]	; 0x38
 8001058:	b008      	add	sp, #32
 800105a:	bd70      	pop	{r4, r5, r6, pc}
 800105c:	40012000 	.word	0x40012000
 8001060:	40020000 	.word	0x40020000
 8001064:	200000fc 	.word	0x200000fc
 8001068:	40026410 	.word	0x40026410
 800106c:	00000000 	.word	0x00000000

08001070 <get_Accel_pitch>:
 8001070:	ee21 1a01 	vmul.f32	s2, s2, s2
 8001074:	b513      	push	{r0, r1, r4, lr}
 8001076:	eea0 1aa0 	vfma.f32	s2, s1, s1
 800107a:	ee10 4a10 	vmov	r4, s0
 800107e:	ee11 0a10 	vmov	r0, s2
 8001082:	f7ff fa0d 	bl	80004a0 <__aeabi_f2d>
 8001086:	ec41 0b10 	vmov	d0, r0, r1
 800108a:	f002 feb7 	bl	8003dfc <sqrt>
 800108e:	4620      	mov	r0, r4
 8001090:	ed8d 0b00 	vstr	d0, [sp]
 8001094:	f7ff fa04 	bl	80004a0 <__aeabi_f2d>
 8001098:	ed9d 1b00 	vldr	d1, [sp]
 800109c:	ec41 0b10 	vmov	d0, r0, r1
 80010a0:	f002 feaa 	bl	8003df8 <atan2>
 80010a4:	a306      	add	r3, pc, #24	; (adr r3, 80010c0 <get_Accel_pitch+0x50>)
 80010a6:	e9d3 2300 	ldrd	r2, r3, [r3]
 80010aa:	ec51 0b10 	vmov	r0, r1, d0
 80010ae:	f7ff fa4f 	bl	8000550 <__aeabi_dmul>
 80010b2:	f7ff fcfd 	bl	8000ab0 <__aeabi_d2f>
 80010b6:	ee00 0a10 	vmov	s0, r0
 80010ba:	b002      	add	sp, #8
 80010bc:	bd10      	pop	{r4, pc}
 80010be:	bf00      	nop
 80010c0:	1a63c1f8 	.word	0x1a63c1f8
 80010c4:	404ca5dc 	.word	0x404ca5dc

080010c8 <get_pitch_accel_error>:
 80010c8:	4b01      	ldr	r3, [pc, #4]	; (80010d0 <get_pitch_accel_error+0x8>)
 80010ca:	ed93 0a00 	vldr	s0, [r3]
 80010ce:	4770      	bx	lr
 80010d0:	2000009c 	.word	0x2000009c

080010d4 <get_pitch_gyro_error>:
 80010d4:	4b01      	ldr	r3, [pc, #4]	; (80010dc <get_pitch_gyro_error+0x8>)
 80010d6:	ed93 0a00 	vldr	s0, [r3]
 80010da:	4770      	bx	lr
 80010dc:	200000a0 	.word	0x200000a0

080010e0 <__handle_pitch>:
 80010e0:	e92d 47f0 	stmdb	sp!, {r4, r5, r6, r7, r8, r9, sl, lr}
 80010e4:	ed2d 8b04 	vpush	{d8-d9}
 80010e8:	b082      	sub	sp, #8
 80010ea:	f000 fae1 	bl	80016b0 <get_direction>
 80010ee:	4b4e      	ldr	r3, [pc, #312]	; (8001228 <__handle_pitch+0x148>)
 80010f0:	781a      	ldrb	r2, [r3, #0]
 80010f2:	4604      	mov	r4, r0
 80010f4:	b12a      	cbz	r2, 8001102 <__handle_pitch+0x22>
 80010f6:	4a4d      	ldr	r2, [pc, #308]	; (800122c <__handle_pitch+0x14c>)
 80010f8:	6811      	ldr	r1, [r2, #0]
 80010fa:	4a4d      	ldr	r2, [pc, #308]	; (8001230 <__handle_pitch+0x150>)
 80010fc:	6011      	str	r1, [r2, #0]
 80010fe:	2200      	movs	r2, #0
 8001100:	701a      	strb	r2, [r3, #0]
 8001102:	4d4c      	ldr	r5, [pc, #304]	; (8001234 <__handle_pitch+0x154>)
 8001104:	2c00      	cmp	r4, #0
 8001106:	d16f      	bne.n	80011e8 <__handle_pitch+0x108>
 8001108:	f995 a000 	ldrsb.w	sl, [r5]
 800110c:	f8df 811c 	ldr.w	r8, [pc, #284]	; 800122c <__handle_pitch+0x14c>
 8001110:	f8df 911c 	ldr.w	r9, [pc, #284]	; 8001230 <__handle_pitch+0x150>
 8001114:	ed98 8a00 	vldr	s16, [r8]
 8001118:	ed99 0a00 	vldr	s0, [r9]
 800111c:	f1ba 3fff 	cmp.w	sl, #4294967295
 8001120:	d01e      	beq.n	8001160 <__handle_pitch+0x80>
 8001122:	ee18 0a10 	vmov	r0, s16
 8001126:	ed8d 0a01 	vstr	s0, [sp, #4]
 800112a:	f7ff f9b9 	bl	80004a0 <__aeabi_f2d>
 800112e:	ed9d 0a01 	vldr	s0, [sp, #4]
 8001132:	4606      	mov	r6, r0
 8001134:	ee10 0a10 	vmov	r0, s0
 8001138:	460f      	mov	r7, r1
 800113a:	f7ff f9b1 	bl	80004a0 <__aeabi_f2d>
 800113e:	4602      	mov	r2, r0
 8001140:	460b      	mov	r3, r1
 8001142:	ec43 2b19 	vmov	d9, r2, r3
 8001146:	4b3c      	ldr	r3, [pc, #240]	; (8001238 <__handle_pitch+0x158>)
 8001148:	2200      	movs	r2, #0
 800114a:	f7ff f849 	bl	80001e0 <__aeabi_dsub>
 800114e:	4602      	mov	r2, r0
 8001150:	460b      	mov	r3, r1
 8001152:	4630      	mov	r0, r6
 8001154:	4639      	mov	r1, r7
 8001156:	f7ff fc6d 	bl	8000a34 <__aeabi_dcmplt>
 800115a:	ed9d 0a01 	vldr	s0, [sp, #4]
 800115e:	b1d0      	cbz	r0, 8001196 <__handle_pitch+0xb6>
 8001160:	eef6 0a00 	vmov.f32	s1, #96	; 0x3f000000  0.5
 8001164:	ee38 8a60 	vsub.f32	s16, s16, s1
 8001168:	eef0 0a48 	vmov.f32	s1, s16
 800116c:	ed9f 1a33 	vldr	s2, [pc, #204]	; 800123c <__handle_pitch+0x15c>
 8001170:	2000      	movs	r0, #0
 8001172:	f7ff fe69 	bl	8000e48 <PID>
 8001176:	4b2e      	ldr	r3, [pc, #184]	; (8001230 <__handle_pitch+0x150>)
 8001178:	edd3 0a00 	vldr	s1, [r3]
 800117c:	eeb0 0a48 	vmov.f32	s0, s16
 8001180:	f000 faae 	bl	80016e0 <motorMove>
 8001184:	4b2e      	ldr	r3, [pc, #184]	; (8001240 <__handle_pitch+0x160>)
 8001186:	702c      	strb	r4, [r5, #0]
 8001188:	ed83 8a00 	vstr	s16, [r3]
 800118c:	b002      	add	sp, #8
 800118e:	ecbd 8b04 	vpop	{d8-d9}
 8001192:	e8bd 87f0 	ldmia.w	sp!, {r4, r5, r6, r7, r8, r9, sl, pc}
 8001196:	f1ba 0f01 	cmp.w	sl, #1
 800119a:	d010      	beq.n	80011be <__handle_pitch+0xde>
 800119c:	4b26      	ldr	r3, [pc, #152]	; (8001238 <__handle_pitch+0x158>)
 800119e:	ed8d 0a01 	vstr	s0, [sp, #4]
 80011a2:	2200      	movs	r2, #0
 80011a4:	ec51 0b19 	vmov	r0, r1, d9
 80011a8:	f7ff f81c 	bl	80001e4 <__adddf3>
 80011ac:	4602      	mov	r2, r0
 80011ae:	460b      	mov	r3, r1
 80011b0:	4630      	mov	r0, r6
 80011b2:	4639      	mov	r1, r7
 80011b4:	f7ff fc5c 	bl	8000a70 <__aeabi_dcmpgt>
 80011b8:	ed9d 0a01 	vldr	s0, [sp, #4]
 80011bc:	b120      	cbz	r0, 80011c8 <__handle_pitch+0xe8>
 80011be:	eef6 0a00 	vmov.f32	s1, #96	; 0x3f000000  0.5
 80011c2:	ee38 8a20 	vadd.f32	s16, s16, s1
 80011c6:	e7cf      	b.n	8001168 <__handle_pitch+0x88>
 80011c8:	eef0 0a48 	vmov.f32	s1, s16
 80011cc:	ed9f 1a1b 	vldr	s2, [pc, #108]	; 800123c <__handle_pitch+0x15c>
 80011d0:	2001      	movs	r0, #1
 80011d2:	f7ff fe39 	bl	8000e48 <PID>
 80011d6:	edd9 0a00 	vldr	s1, [r9]
 80011da:	ed98 0a00 	vldr	s0, [r8]
 80011de:	f000 fa7f 	bl	80016e0 <motorMove>
 80011e2:	ed9f 8a18 	vldr	s16, [pc, #96]	; 8001244 <__handle_pitch+0x164>
 80011e6:	e7cd      	b.n	8001184 <__handle_pitch+0xa4>
 80011e8:	1c63      	adds	r3, r4, #1
 80011ea:	d113      	bne.n	8001214 <__handle_pitch+0x134>
 80011ec:	4b0f      	ldr	r3, [pc, #60]	; (800122c <__handle_pitch+0x14c>)
 80011ee:	ed93 8a00 	vldr	s16, [r3]
 80011f2:	eef7 0a04 	vmov.f32	s1, #116	; 0x3fa00000  1.250
 80011f6:	ee38 8a60 	vsub.f32	s16, s16, s1
 80011fa:	4e0d      	ldr	r6, [pc, #52]	; (8001230 <__handle_pitch+0x150>)
 80011fc:	ed9f 1a0f 	vldr	s2, [pc, #60]	; 800123c <__handle_pitch+0x15c>
 8001200:	ed96 0a00 	vldr	s0, [r6]
 8001204:	eef0 0a48 	vmov.f32	s1, s16
 8001208:	2000      	movs	r0, #0
 800120a:	f7ff fe1d 	bl	8000e48 <PID>
 800120e:	edd6 0a00 	vldr	s1, [r6]
 8001212:	e7b3      	b.n	800117c <__handle_pitch+0x9c>
 8001214:	2c01      	cmp	r4, #1
 8001216:	d1e4      	bne.n	80011e2 <__handle_pitch+0x102>
 8001218:	4b04      	ldr	r3, [pc, #16]	; (800122c <__handle_pitch+0x14c>)
 800121a:	ed93 8a00 	vldr	s16, [r3]
 800121e:	eef7 0a08 	vmov.f32	s1, #120	; 0x3fc00000  1.5
 8001222:	ee38 8a20 	vadd.f32	s16, s16, s1
 8001226:	e7e8      	b.n	80011fa <__handle_pitch+0x11a>
 8001228:	20000000 	.word	0x20000000
 800122c:	200000a8 	.word	0x200000a8
 8001230:	2000015c 	.word	0x2000015c
 8001234:	200000ac 	.word	0x200000ac
 8001238:	3fe80000 	.word	0x3fe80000
 800123c:	3ba3d70a 	.word	0x3ba3d70a
 8001240:	200000a4 	.word	0x200000a4
 8001244:	00000000 	.word	0x00000000

08001248 <execute_control>:
 8001248:	b570      	push	{r4, r5, r6, lr}
 800124a:	ed2d 8b04 	vpush	{d8-d9}
 800124e:	f000 fb35 	bl	80018bc <MPU6050_retrieve_data>
 8001252:	2800      	cmp	r0, #0
 8001254:	d16b      	bne.n	800132e <execute_control+0xe6>
 8001256:	f000 fb39 	bl	80018cc <MPU6050_save_data>
 800125a:	f000 fb69 	bl	8001930 <MPU6050_get_gy>
 800125e:	ee08 0a90 	vmov	s17, r0
 8001262:	f000 fb6b 	bl	800193c <MPU6050_get_ax>
 8001266:	ee08 0a10 	vmov	s16, r0
 800126a:	f000 fb6d 	bl	8001948 <MPU6050_get_ay>
 800126e:	ee09 0a10 	vmov	s18, r0
 8001272:	f000 fb6f 	bl	8001954 <MPU6050_get_az>
 8001276:	ee07 0a90 	vmov	s15, r0
 800127a:	ed9f 0a35 	vldr	s0, [pc, #212]	; 8001350 <execute_control+0x108>
 800127e:	4e35      	ldr	r6, [pc, #212]	; (8001354 <execute_control+0x10c>)
 8001280:	eeb8 1ae7 	vcvt.f32.s32	s2, s15
 8001284:	eef8 0ac9 	vcvt.f32.s32	s1, s18
 8001288:	eeb8 8ac8 	vcvt.f32.s32	s16, s16
 800128c:	ee60 0a80 	vmul.f32	s1, s1, s0
 8001290:	ee21 1a00 	vmul.f32	s2, s2, s0
 8001294:	ee28 0a00 	vmul.f32	s0, s16, s0
 8001298:	f7ff feea 	bl	8001070 <get_Accel_pitch>
 800129c:	eeb0 8a40 	vmov.f32	s16, s0
 80012a0:	f7ff ff12 	bl	80010c8 <get_pitch_accel_error>
 80012a4:	6830      	ldr	r0, [r6, #0]
 80012a6:	ee38 8a40 	vsub.f32	s16, s16, s0
 80012aa:	f7ff f8f9 	bl	80004a0 <__aeabi_f2d>
 80012ae:	4604      	mov	r4, r0
 80012b0:	460d      	mov	r5, r1
 80012b2:	f7ff ff0f 	bl	80010d4 <get_pitch_gyro_error>
 80012b6:	ed9f 7a28 	vldr	s14, [pc, #160]	; 8001358 <execute_control+0x110>
 80012ba:	eef8 8ae8 	vcvt.f32.s32	s17, s17
 80012be:	eec8 7a87 	vdiv.f32	s15, s17, s14
 80012c2:	ee77 7ac0 	vsub.f32	s15, s15, s0
 80012c6:	ee17 0a90 	vmov	r0, s15
 80012ca:	f7ff f8e9 	bl	80004a0 <__aeabi_f2d>
 80012ce:	a31a      	add	r3, pc, #104	; (adr r3, 8001338 <execute_control+0xf0>)
 80012d0:	e9d3 2300 	ldrd	r2, r3, [r3]
 80012d4:	f7ff f93c 	bl	8000550 <__aeabi_dmul>
 80012d8:	4622      	mov	r2, r4
 80012da:	462b      	mov	r3, r5
 80012dc:	f7fe ff82 	bl	80001e4 <__adddf3>
 80012e0:	f7ff fbe6 	bl	8000ab0 <__aeabi_d2f>
 80012e4:	f7ff f8dc 	bl	80004a0 <__aeabi_f2d>
 80012e8:	a315      	add	r3, pc, #84	; (adr r3, 8001340 <execute_control+0xf8>)
 80012ea:	e9d3 2300 	ldrd	r2, r3, [r3]
 80012ee:	f7ff f92f 	bl	8000550 <__aeabi_dmul>
 80012f2:	4604      	mov	r4, r0
 80012f4:	ee18 0a10 	vmov	r0, s16
 80012f8:	460d      	mov	r5, r1
 80012fa:	f7ff f8d1 	bl	80004a0 <__aeabi_f2d>
 80012fe:	a312      	add	r3, pc, #72	; (adr r3, 8001348 <execute_control+0x100>)
 8001300:	e9d3 2300 	ldrd	r2, r3, [r3]
 8001304:	f7ff f924 	bl	8000550 <__aeabi_dmul>
 8001308:	4602      	mov	r2, r0
 800130a:	460b      	mov	r3, r1
 800130c:	4620      	mov	r0, r4
 800130e:	4629      	mov	r1, r5
 8001310:	f7fe ff68 	bl	80001e4 <__adddf3>
 8001314:	f7ff fbcc 	bl	8000ab0 <__aeabi_d2f>
 8001318:	6030      	str	r0, [r6, #0]
 800131a:	f7ff f8c1 	bl	80004a0 <__aeabi_f2d>
 800131e:	ecbd 8b04 	vpop	{d8-d9}
 8001322:	ec41 0b10 	vmov	d0, r0, r1
 8001326:	e8bd 4070 	ldmia.w	sp!, {r4, r5, r6, lr}
 800132a:	f7ff bed9 	b.w	80010e0 <__handle_pitch>
 800132e:	ecbd 8b04 	vpop	{d8-d9}
 8001332:	bd70      	pop	{r4, r5, r6, pc}
 8001334:	f3af 8000 	nop.w
 8001338:	47ae147b 	.word	0x47ae147b
 800133c:	3f747ae1 	.word	0x3f747ae1
 8001340:	f5c28f5c 	.word	0xf5c28f5c
 8001344:	3fef5c28 	.word	0x3fef5c28
 8001348:	47ae1480 	.word	0x47ae1480
 800134c:	3f947ae1 	.word	0x3f947ae1
 8001350:	38800000 	.word	0x38800000
 8001354:	200000a8 	.word	0x200000a8
 8001358:	43030000 	.word	0x43030000

0800135c <MX_DMA_Init>:
 800135c:	b507      	push	{r0, r1, r2, lr}
 800135e:	4b0b      	ldr	r3, [pc, #44]	; (800138c <MX_DMA_Init+0x30>)
 8001360:	2200      	movs	r2, #0
 8001362:	9201      	str	r2, [sp, #4]
 8001364:	6b19      	ldr	r1, [r3, #48]	; 0x30
 8001366:	f441 0180 	orr.w	r1, r1, #4194304	; 0x400000
 800136a:	6319      	str	r1, [r3, #48]	; 0x30
 800136c:	6b1b      	ldr	r3, [r3, #48]	; 0x30
 800136e:	f403 0380 	and.w	r3, r3, #4194304	; 0x400000
 8001372:	9301      	str	r3, [sp, #4]
 8001374:	4611      	mov	r1, r2
 8001376:	2038      	movs	r0, #56	; 0x38
 8001378:	9b01      	ldr	r3, [sp, #4]
 800137a:	f000 ff97 	bl	80022ac <HAL_NVIC_SetPriority>
 800137e:	2038      	movs	r0, #56	; 0x38
 8001380:	b003      	add	sp, #12
 8001382:	f85d eb04 	ldr.w	lr, [sp], #4
 8001386:	f000 bfc3 	b.w	8002310 <HAL_NVIC_EnableIRQ>
 800138a:	bf00      	nop
 800138c:	40023800 	.word	0x40023800

08001390 <MX_GPIO_Init>:
 8001390:	b5f0      	push	{r4, r5, r6, r7, lr}
 8001392:	b089      	sub	sp, #36	; 0x24
 8001394:	2214      	movs	r2, #20
 8001396:	2100      	movs	r1, #0
 8001398:	a803      	add	r0, sp, #12
 800139a:	f002 fd25 	bl	8003de8 <memset>
 800139e:	2400      	movs	r4, #0
 80013a0:	4b1f      	ldr	r3, [pc, #124]	; (8001420 <MX_GPIO_Init+0x90>)
 80013a2:	9400      	str	r4, [sp, #0]
 80013a4:	6b1a      	ldr	r2, [r3, #48]	; 0x30
 80013a6:	4f1f      	ldr	r7, [pc, #124]	; (8001424 <MX_GPIO_Init+0x94>)
 80013a8:	4d1f      	ldr	r5, [pc, #124]	; (8001428 <MX_GPIO_Init+0x98>)
 80013aa:	f042 0204 	orr.w	r2, r2, #4
 80013ae:	631a      	str	r2, [r3, #48]	; 0x30
 80013b0:	6b1a      	ldr	r2, [r3, #48]	; 0x30
 80013b2:	f002 0204 	and.w	r2, r2, #4
 80013b6:	9200      	str	r2, [sp, #0]
 80013b8:	9a00      	ldr	r2, [sp, #0]
 80013ba:	9401      	str	r4, [sp, #4]
 80013bc:	6b1a      	ldr	r2, [r3, #48]	; 0x30
 80013be:	f042 0201 	orr.w	r2, r2, #1
 80013c2:	631a      	str	r2, [r3, #48]	; 0x30
 80013c4:	6b1a      	ldr	r2, [r3, #48]	; 0x30
 80013c6:	f002 0201 	and.w	r2, r2, #1
 80013ca:	9201      	str	r2, [sp, #4]
 80013cc:	9a01      	ldr	r2, [sp, #4]
 80013ce:	9402      	str	r4, [sp, #8]
 80013d0:	6b1a      	ldr	r2, [r3, #48]	; 0x30
 80013d2:	f042 0202 	orr.w	r2, r2, #2
 80013d6:	631a      	str	r2, [r3, #48]	; 0x30
 80013d8:	6b1b      	ldr	r3, [r3, #48]	; 0x30
 80013da:	f003 0302 	and.w	r3, r3, #2
 80013de:	9302      	str	r3, [sp, #8]
 80013e0:	4622      	mov	r2, r4
 80013e2:	4638      	mov	r0, r7
 80013e4:	2103      	movs	r1, #3
 80013e6:	9b02      	ldr	r3, [sp, #8]
 80013e8:	f001 fa0c 	bl	8002804 <HAL_GPIO_WritePin>
 80013ec:	4622      	mov	r2, r4
 80013ee:	4628      	mov	r0, r5
 80013f0:	2120      	movs	r1, #32
 80013f2:	f001 fa07 	bl	8002804 <HAL_GPIO_WritePin>
 80013f6:	2601      	movs	r6, #1
 80013f8:	2303      	movs	r3, #3
 80013fa:	a903      	add	r1, sp, #12
 80013fc:	4638      	mov	r0, r7
 80013fe:	e9cd 3603 	strd	r3, r6, [sp, #12]
 8001402:	e9cd 4405 	strd	r4, r4, [sp, #20]
 8001406:	f001 f935 	bl	8002674 <HAL_GPIO_Init>
 800140a:	2320      	movs	r3, #32
 800140c:	a903      	add	r1, sp, #12
 800140e:	4628      	mov	r0, r5
 8001410:	e9cd 3603 	strd	r3, r6, [sp, #12]
 8001414:	e9cd 4405 	strd	r4, r4, [sp, #20]
 8001418:	f001 f92c 	bl	8002674 <HAL_GPIO_Init>
 800141c:	b009      	add	sp, #36	; 0x24
 800141e:	bdf0      	pop	{r4, r5, r6, r7, pc}
 8001420:	40023800 	.word	0x40023800
 8001424:	40020800 	.word	0x40020800
 8001428:	40020000 	.word	0x40020000

0800142c <set_gyro_axes>:
 800142c:	8001      	strh	r1, [r0, #0]
 800142e:	8042      	strh	r2, [r0, #2]
 8001430:	8083      	strh	r3, [r0, #4]
 8001432:	4770      	bx	lr

08001434 <get_gy>:
 8001434:	f9b0 0002 	ldrsh.w	r0, [r0, #2]
 8001438:	4770      	bx	lr
	...

0800143c <MX_I2C2_Init>:
 800143c:	b508      	push	{r3, lr}
 800143e:	480b      	ldr	r0, [pc, #44]	; (800146c <MX_I2C2_Init+0x30>)
 8001440:	4a0b      	ldr	r2, [pc, #44]	; (8001470 <MX_I2C2_Init+0x34>)
 8001442:	4b0c      	ldr	r3, [pc, #48]	; (8001474 <MX_I2C2_Init+0x38>)
 8001444:	e9c0 2300 	strd	r2, r3, [r0]
 8001448:	2300      	movs	r3, #0
 800144a:	f44f 4280 	mov.w	r2, #16384	; 0x4000
 800144e:	e9c0 3302 	strd	r3, r3, [r0, #8]
 8001452:	e9c0 2304 	strd	r2, r3, [r0, #16]
 8001456:	e9c0 3306 	strd	r3, r3, [r0, #24]
 800145a:	6203      	str	r3, [r0, #32]
 800145c:	f001 fbb4 	bl	8002bc8 <HAL_I2C_Init>
 8001460:	b118      	cbz	r0, 800146a <MX_I2C2_Init+0x2e>
 8001462:	e8bd 4008 	ldmia.w	sp!, {r3, lr}
 8001466:	f000 b8ef 	b.w	8001648 <Error_Handler>
 800146a:	bd08      	pop	{r3, pc}
 800146c:	20000160 	.word	0x20000160
 8001470:	40005800 	.word	0x40005800
 8001474:	00061a80 	.word	0x00061a80

08001478 <HAL_I2C_MspInit>:
 8001478:	e92d 41f0 	stmdb	sp!, {r4, r5, r6, r7, r8, lr}
 800147c:	4604      	mov	r4, r0
 800147e:	b088      	sub	sp, #32
 8001480:	2214      	movs	r2, #20
 8001482:	2100      	movs	r1, #0
 8001484:	a803      	add	r0, sp, #12
 8001486:	f002 fcaf 	bl	8003de8 <memset>
 800148a:	6822      	ldr	r2, [r4, #0]
 800148c:	4b1b      	ldr	r3, [pc, #108]	; (80014fc <HAL_I2C_MspInit+0x84>)
 800148e:	429a      	cmp	r2, r3
 8001490:	d130      	bne.n	80014f4 <HAL_I2C_MspInit+0x7c>
 8001492:	4c1b      	ldr	r4, [pc, #108]	; (8001500 <HAL_I2C_MspInit+0x88>)
 8001494:	481b      	ldr	r0, [pc, #108]	; (8001504 <HAL_I2C_MspInit+0x8c>)
 8001496:	2500      	movs	r5, #0
 8001498:	9501      	str	r5, [sp, #4]
 800149a:	6b23      	ldr	r3, [r4, #48]	; 0x30
 800149c:	f043 0302 	orr.w	r3, r3, #2
 80014a0:	6323      	str	r3, [r4, #48]	; 0x30
 80014a2:	6b23      	ldr	r3, [r4, #48]	; 0x30
 80014a4:	f003 0302 	and.w	r3, r3, #2
 80014a8:	9301      	str	r3, [sp, #4]
 80014aa:	9b01      	ldr	r3, [sp, #4]
 80014ac:	f04f 0812 	mov.w	r8, #18
 80014b0:	f44f 6380 	mov.w	r3, #1024	; 0x400
 80014b4:	e9cd 3803 	strd	r3, r8, [sp, #12]
 80014b8:	2701      	movs	r7, #1
 80014ba:	2304      	movs	r3, #4
 80014bc:	2603      	movs	r6, #3
 80014be:	a903      	add	r1, sp, #12
 80014c0:	9307      	str	r3, [sp, #28]
 80014c2:	e9cd 7605 	strd	r7, r6, [sp, #20]
 80014c6:	f001 f8d5 	bl	8002674 <HAL_GPIO_Init>
 80014ca:	2308      	movs	r3, #8
 80014cc:	e9cd 3803 	strd	r3, r8, [sp, #12]
 80014d0:	480c      	ldr	r0, [pc, #48]	; (8001504 <HAL_I2C_MspInit+0x8c>)
 80014d2:	2309      	movs	r3, #9
 80014d4:	a903      	add	r1, sp, #12
 80014d6:	9307      	str	r3, [sp, #28]
 80014d8:	e9cd 7605 	strd	r7, r6, [sp, #20]
 80014dc:	f001 f8ca 	bl	8002674 <HAL_GPIO_Init>
 80014e0:	9502      	str	r5, [sp, #8]
 80014e2:	6c23      	ldr	r3, [r4, #64]	; 0x40
 80014e4:	f443 0380 	orr.w	r3, r3, #4194304	; 0x400000
 80014e8:	6423      	str	r3, [r4, #64]	; 0x40
 80014ea:	6c23      	ldr	r3, [r4, #64]	; 0x40
 80014ec:	f403 0380 	and.w	r3, r3, #4194304	; 0x400000
 80014f0:	9302      	str	r3, [sp, #8]
 80014f2:	9b02      	ldr	r3, [sp, #8]
 80014f4:	b008      	add	sp, #32
 80014f6:	e8bd 81f0 	ldmia.w	sp!, {r4, r5, r6, r7, r8, pc}
 80014fa:	bf00      	nop
 80014fc:	40005800 	.word	0x40005800
 8001500:	40023800 	.word	0x40023800
 8001504:	40020400 	.word	0x40020400

08001508 <request_data>:
 8001508:	b508      	push	{r3, lr}
 800150a:	4905      	ldr	r1, [pc, #20]	; (8001520 <request_data+0x18>)
 800150c:	4805      	ldr	r0, [pc, #20]	; (8001524 <request_data+0x1c>)
 800150e:	2201      	movs	r2, #1
 8001510:	f000 fd4a 	bl	8001fa8 <HAL_ADC_Start_DMA>
 8001514:	2800      	cmp	r0, #0
 8001516:	bf14      	ite	ne
 8001518:	f06f 0001 	mvnne.w	r0, #1
 800151c:	2000      	moveq	r0, #0
 800151e:	bd08      	pop	{r3, pc}
 8001520:	200000ae 	.word	0x200000ae
 8001524:	200000b4 	.word	0x200000b4

08001528 <save_data>:
 8001528:	4b02      	ldr	r3, [pc, #8]	; (8001534 <save_data+0xc>)
 800152a:	881a      	ldrh	r2, [r3, #0]
 800152c:	4b02      	ldr	r3, [pc, #8]	; (8001538 <save_data+0x10>)
 800152e:	801a      	strh	r2, [r3, #0]
 8001530:	4770      	bx	lr
 8001532:	bf00      	nop
 8001534:	200000ae 	.word	0x200000ae
 8001538:	200001b4 	.word	0x200001b4

0800153c <read_data>:
 800153c:	4b01      	ldr	r3, [pc, #4]	; (8001544 <read_data+0x8>)
 800153e:	881b      	ldrh	r3, [r3, #0]
 8001540:	8003      	strh	r3, [r0, #0]
 8001542:	4770      	bx	lr
 8001544:	200001b4 	.word	0x200001b4

08001548 <get_x>:
 8001548:	8800      	ldrh	r0, [r0, #0]
 800154a:	4770      	bx	lr

0800154c <SystemClock_Config>:
 800154c:	b500      	push	{lr}
 800154e:	b095      	sub	sp, #84	; 0x54
 8001550:	222c      	movs	r2, #44	; 0x2c
 8001552:	2100      	movs	r1, #0
 8001554:	a809      	add	r0, sp, #36	; 0x24
 8001556:	f002 fc47 	bl	8003de8 <memset>
 800155a:	2214      	movs	r2, #20
 800155c:	2100      	movs	r1, #0
 800155e:	a803      	add	r0, sp, #12
 8001560:	f002 fc42 	bl	8003de8 <memset>
 8001564:	2200      	movs	r2, #0
 8001566:	4b1a      	ldr	r3, [pc, #104]	; (80015d0 <SystemClock_Config+0x84>)
 8001568:	9201      	str	r2, [sp, #4]
 800156a:	6c19      	ldr	r1, [r3, #64]	; 0x40
 800156c:	f041 5180 	orr.w	r1, r1, #268435456	; 0x10000000
 8001570:	6419      	str	r1, [r3, #64]	; 0x40
 8001572:	6c1b      	ldr	r3, [r3, #64]	; 0x40
 8001574:	4917      	ldr	r1, [pc, #92]	; (80015d4 <SystemClock_Config+0x88>)
 8001576:	f003 5380 	and.w	r3, r3, #268435456	; 0x10000000
 800157a:	9301      	str	r3, [sp, #4]
 800157c:	9b01      	ldr	r3, [sp, #4]
 800157e:	9202      	str	r2, [sp, #8]
 8001580:	680b      	ldr	r3, [r1, #0]
 8001582:	f423 4340 	bic.w	r3, r3, #49152	; 0xc000
 8001586:	f443 4300 	orr.w	r3, r3, #32768	; 0x8000
 800158a:	600b      	str	r3, [r1, #0]
 800158c:	680b      	ldr	r3, [r1, #0]
 800158e:	920e      	str	r2, [sp, #56]	; 0x38
 8001590:	f403 4340 	and.w	r3, r3, #49152	; 0xc000
 8001594:	9302      	str	r3, [sp, #8]
 8001596:	9b02      	ldr	r3, [sp, #8]
 8001598:	2302      	movs	r3, #2
 800159a:	9308      	str	r3, [sp, #32]
 800159c:	2001      	movs	r0, #1
 800159e:	2310      	movs	r3, #16
 80015a0:	e9cd 030b 	strd	r0, r3, [sp, #44]	; 0x2c
 80015a4:	a808      	add	r0, sp, #32
 80015a6:	f001 fdff 	bl	80031a8 <HAL_RCC_OscConfig>
 80015aa:	4601      	mov	r1, r0
 80015ac:	b108      	cbz	r0, 80015b2 <SystemClock_Config+0x66>
 80015ae:	b672      	cpsid	i
 80015b0:	e7fe      	b.n	80015b0 <SystemClock_Config+0x64>
 80015b2:	230f      	movs	r3, #15
 80015b4:	e9cd 3003 	strd	r3, r0, [sp, #12]
 80015b8:	e9cd 0005 	strd	r0, r0, [sp, #20]
 80015bc:	9007      	str	r0, [sp, #28]
 80015be:	a803      	add	r0, sp, #12
 80015c0:	f001 ffcc 	bl	800355c <HAL_RCC_ClockConfig>
 80015c4:	b108      	cbz	r0, 80015ca <SystemClock_Config+0x7e>
 80015c6:	b672      	cpsid	i
 80015c8:	e7fe      	b.n	80015c8 <SystemClock_Config+0x7c>
 80015ca:	b015      	add	sp, #84	; 0x54
 80015cc:	f85d fb04 	ldr.w	pc, [sp], #4
 80015d0:	40023800 	.word	0x40023800
 80015d4:	40007000 	.word	0x40007000

080015d8 <main>:
 80015d8:	b510      	push	{r4, lr}
 80015da:	f000 fbff 	bl	8001ddc <HAL_Init>
 80015de:	f7ff ffb5 	bl	800154c <SystemClock_Config>
 80015e2:	f7ff fed5 	bl	8001390 <MX_GPIO_Init>
 80015e6:	f7ff feb9 	bl	800135c <MX_DMA_Init>
 80015ea:	f7ff fcb9 	bl	8000f60 <MX_ADC1_Init>
 80015ee:	f7ff ff25 	bl	800143c <MX_I2C2_Init>
 80015f2:	f000 fa2f 	bl	8001a54 <MX_TIM1_Init>
 80015f6:	f000 fa5d 	bl	8001ab4 <MX_TIM3_Init>
 80015fa:	f000 fb6d 	bl	8001cd8 <MX_TIM10_Init>
 80015fe:	f000 fa87 	bl	8001b10 <MX_TIM11_Init>
 8001602:	f000 f931 	bl	8001868 <MPU6050_init>
 8001606:	4604      	mov	r4, r0
 8001608:	f44f 707a 	mov.w	r0, #1000	; 0x3e8
 800160c:	f000 fc12 	bl	8001e34 <HAL_Delay>
 8001610:	3401      	adds	r4, #1
 8001612:	d0f6      	beq.n	8001602 <main+0x2a>
 8001614:	f64f 72b4 	movw	r2, #65460	; 0xffb4
 8001618:	f64f 719b 	movw	r1, #65435	; 0xff9b
 800161c:	2052      	movs	r0, #82	; 0x52
 800161e:	f000 f9c3 	bl	80019a8 <set_Gyro_offset>
 8001622:	4806      	ldr	r0, [pc, #24]	; (800163c <main+0x64>)
 8001624:	2200      	movs	r2, #0
 8001626:	2120      	movs	r1, #32
 8001628:	f001 f8ec 	bl	8002804 <HAL_GPIO_WritePin>
 800162c:	4804      	ldr	r0, [pc, #16]	; (8001640 <main+0x68>)
 800162e:	2100      	movs	r1, #0
 8001630:	f002 fb76 	bl	8003d20 <HAL_TIM_PWM_Start>
 8001634:	4803      	ldr	r0, [pc, #12]	; (8001644 <main+0x6c>)
 8001636:	f002 f8b1 	bl	800379c <HAL_TIM_Base_Start_IT>
 800163a:	e7fe      	b.n	800163a <main+0x62>
 800163c:	40020000 	.word	0x40020000
 8001640:	200001d4 	.word	0x200001d4
 8001644:	20000264 	.word	0x20000264

08001648 <Error_Handler>:
 8001648:	b672      	cpsid	i
 800164a:	e7fe      	b.n	800164a <Error_Handler+0x2>

0800164c <__handler>:
 800164c:	f100 034c 	add.w	r3, r0, #76	; 0x4c
 8001650:	b2db      	uxtb	r3, r3
 8001652:	2b13      	cmp	r3, #19
 8001654:	4b14      	ldr	r3, [pc, #80]	; (80016a8 <__handler+0x5c>)
 8001656:	d80d      	bhi.n	8001674 <__handler+0x28>
 8001658:	4914      	ldr	r1, [pc, #80]	; (80016ac <__handler+0x60>)
 800165a:	f991 2000 	ldrsb.w	r2, [r1]
 800165e:	7809      	ldrb	r1, [r1, #0]
 8001660:	2901      	cmp	r1, #1
 8001662:	d803      	bhi.n	800166c <__handler+0x20>
 8001664:	701a      	strb	r2, [r3, #0]
 8001666:	f993 0000 	ldrsb.w	r0, [r3]
 800166a:	4770      	bx	lr
 800166c:	3201      	adds	r2, #1
 800166e:	d1fa      	bne.n	8001666 <__handler+0x1a>
 8001670:	2200      	movs	r2, #0
 8001672:	e7f7      	b.n	8001664 <__handler+0x18>
 8001674:	f1a0 0228 	sub.w	r2, r0, #40	; 0x28
 8001678:	2a21      	cmp	r2, #33	; 0x21
 800167a:	d808      	bhi.n	800168e <__handler+0x42>
 800167c:	4a0b      	ldr	r2, [pc, #44]	; (80016ac <__handler+0x60>)
 800167e:	f992 2000 	ldrsb.w	r2, [r2]
 8001682:	1c51      	adds	r1, r2, #1
 8001684:	b2c9      	uxtb	r1, r1
 8001686:	2901      	cmp	r1, #1
 8001688:	d9ec      	bls.n	8001664 <__handler+0x18>
 800168a:	2a01      	cmp	r2, #1
 800168c:	e7ef      	b.n	800166e <__handler+0x22>
 800168e:	28c7      	cmp	r0, #199	; 0xc7
 8001690:	d901      	bls.n	8001696 <__handler+0x4a>
 8001692:	2201      	movs	r2, #1
 8001694:	e7e6      	b.n	8001664 <__handler+0x18>
 8001696:	2828      	cmp	r0, #40	; 0x28
 8001698:	d801      	bhi.n	800169e <__handler+0x52>
 800169a:	22ff      	movs	r2, #255	; 0xff
 800169c:	e7e2      	b.n	8001664 <__handler+0x18>
 800169e:	384b      	subs	r0, #75	; 0x4b
 80016a0:	2868      	cmp	r0, #104	; 0x68
 80016a2:	d9e5      	bls.n	8001670 <__handler+0x24>
 80016a4:	e7df      	b.n	8001666 <__handler+0x1a>
 80016a6:	bf00      	nop
 80016a8:	200000b1 	.word	0x200000b1
 80016ac:	200000b0 	.word	0x200000b0

080016b0 <get_direction>:
 80016b0:	b508      	push	{r3, lr}
 80016b2:	f7ff ff29 	bl	8001508 <request_data>
 80016b6:	4807      	ldr	r0, [pc, #28]	; (80016d4 <get_direction+0x24>)
 80016b8:	f7ff ff40 	bl	800153c <read_data>
 80016bc:	4805      	ldr	r0, [pc, #20]	; (80016d4 <get_direction+0x24>)
 80016be:	f7ff ff43 	bl	8001548 <get_x>
 80016c2:	b2c0      	uxtb	r0, r0
 80016c4:	f7ff ffc2 	bl	800164c <__handler>
 80016c8:	4b03      	ldr	r3, [pc, #12]	; (80016d8 <get_direction+0x28>)
 80016ca:	f993 0000 	ldrsb.w	r0, [r3]
 80016ce:	4b03      	ldr	r3, [pc, #12]	; (80016dc <get_direction+0x2c>)
 80016d0:	7018      	strb	r0, [r3, #0]
 80016d2:	bd08      	pop	{r3, pc}
 80016d4:	200001b6 	.word	0x200001b6
 80016d8:	200000b1 	.word	0x200000b1
 80016dc:	200000b0 	.word	0x200000b0

080016e0 <motorMove>:
 80016e0:	2800      	cmp	r0, #0
 80016e2:	eeb4 0ae0 	vcmpe.f32	s0, s1
 80016e6:	bfb8      	it	lt
 80016e8:	4240      	neglt	r0, r0
 80016ea:	eef1 fa10 	vmrs	APSR_nzcv, fpscr
 80016ee:	b538      	push	{r3, r4, r5, lr}
 80016f0:	4d0b      	ldr	r5, [pc, #44]	; (8001720 <motorMove+0x40>)
 80016f2:	b284      	uxth	r4, r0
 80016f4:	dc0c      	bgt.n	8001710 <motorMove+0x30>
 80016f6:	2201      	movs	r2, #1
 80016f8:	2102      	movs	r1, #2
 80016fa:	480a      	ldr	r0, [pc, #40]	; (8001724 <motorMove+0x44>)
 80016fc:	f001 f882 	bl	8002804 <HAL_GPIO_WritePin>
 8001700:	2200      	movs	r2, #0
 8001702:	2101      	movs	r1, #1
 8001704:	4807      	ldr	r0, [pc, #28]	; (8001724 <motorMove+0x44>)
 8001706:	f001 f87d 	bl	8002804 <HAL_GPIO_WritePin>
 800170a:	682b      	ldr	r3, [r5, #0]
 800170c:	635c      	str	r4, [r3, #52]	; 0x34
 800170e:	bd38      	pop	{r3, r4, r5, pc}
 8001710:	2200      	movs	r2, #0
 8001712:	2102      	movs	r1, #2
 8001714:	4803      	ldr	r0, [pc, #12]	; (8001724 <motorMove+0x44>)
 8001716:	f001 f875 	bl	8002804 <HAL_GPIO_WritePin>
 800171a:	2201      	movs	r2, #1
 800171c:	4611      	mov	r1, r2
 800171e:	e7f1      	b.n	8001704 <motorMove+0x24>
 8001720:	200001d4 	.word	0x200001d4
 8001724:	40020800 	.word	0x40020800

08001728 <__MPU6050_read>:
 8001728:	b51f      	push	{r0, r1, r2, r3, r4, lr}
 800172a:	2364      	movs	r3, #100	; 0x64
 800172c:	e9cd 2301 	strd	r2, r3, [sp, #4]
 8001730:	9100      	str	r1, [sp, #0]
 8001732:	4602      	mov	r2, r0
 8001734:	2301      	movs	r3, #1
 8001736:	21d0      	movs	r1, #208	; 0xd0
 8001738:	4805      	ldr	r0, [pc, #20]	; (8001750 <__MPU6050_read+0x28>)
 800173a:	f001 fb7d 	bl	8002e38 <HAL_I2C_Mem_Read>
 800173e:	2800      	cmp	r0, #0
 8001740:	bf14      	ite	ne
 8001742:	f06f 0001 	mvnne.w	r0, #1
 8001746:	2000      	moveq	r0, #0
 8001748:	b005      	add	sp, #20
 800174a:	f85d fb04 	ldr.w	pc, [sp], #4
 800174e:	bf00      	nop
 8001750:	20000160 	.word	0x20000160

08001754 <__MPU6050_write>:
 8001754:	b51f      	push	{r0, r1, r2, r3, r4, lr}
 8001756:	2364      	movs	r3, #100	; 0x64
 8001758:	e9cd 2301 	strd	r2, r3, [sp, #4]
 800175c:	9100      	str	r1, [sp, #0]
 800175e:	4602      	mov	r2, r0
 8001760:	2301      	movs	r3, #1
 8001762:	21d0      	movs	r1, #208	; 0xd0
 8001764:	4805      	ldr	r0, [pc, #20]	; (800177c <__MPU6050_write+0x28>)
 8001766:	f001 fad7 	bl	8002d18 <HAL_I2C_Mem_Write>
 800176a:	2800      	cmp	r0, #0
 800176c:	bf14      	ite	ne
 800176e:	f06f 0001 	mvnne.w	r0, #1
 8001772:	2000      	moveq	r0, #0
 8001774:	b005      	add	sp, #20
 8001776:	f85d fb04 	ldr.w	pc, [sp], #4
 800177a:	bf00      	nop
 800177c:	20000160 	.word	0x20000160

08001780 <MPU6050_gyro_set_full_scale_range>:
 8001780:	2803      	cmp	r0, #3
 8001782:	b513      	push	{r0, r1, r4, lr}
 8001784:	4604      	mov	r4, r0
 8001786:	d815      	bhi.n	80017b4 <MPU6050_gyro_set_full_scale_range+0x34>
 8001788:	2201      	movs	r2, #1
 800178a:	f10d 0107 	add.w	r1, sp, #7
 800178e:	201b      	movs	r0, #27
 8001790:	f7ff ffca 	bl	8001728 <__MPU6050_read>
 8001794:	00e4      	lsls	r4, r4, #3
 8001796:	f89d 3007 	ldrb.w	r3, [sp, #7]
 800179a:	f044 0407 	orr.w	r4, r4, #7
 800179e:	401c      	ands	r4, r3
 80017a0:	2201      	movs	r2, #1
 80017a2:	f10d 0107 	add.w	r1, sp, #7
 80017a6:	201b      	movs	r0, #27
 80017a8:	f88d 4007 	strb.w	r4, [sp, #7]
 80017ac:	f7ff ffd2 	bl	8001754 <__MPU6050_write>
 80017b0:	b002      	add	sp, #8
 80017b2:	bd10      	pop	{r4, pc}
 80017b4:	f04f 30ff 	mov.w	r0, #4294967295
 80017b8:	e7fa      	b.n	80017b0 <MPU6050_gyro_set_full_scale_range+0x30>

080017ba <MPU6050_accel_set_full_scale_range>:
 80017ba:	2803      	cmp	r0, #3
 80017bc:	b513      	push	{r0, r1, r4, lr}
 80017be:	4604      	mov	r4, r0
 80017c0:	d815      	bhi.n	80017ee <MPU6050_accel_set_full_scale_range+0x34>
 80017c2:	2201      	movs	r2, #1
 80017c4:	f10d 0107 	add.w	r1, sp, #7
 80017c8:	201c      	movs	r0, #28
 80017ca:	f7ff ffad 	bl	8001728 <__MPU6050_read>
 80017ce:	00e4      	lsls	r4, r4, #3
 80017d0:	f89d 3007 	ldrb.w	r3, [sp, #7]
 80017d4:	f044 0407 	orr.w	r4, r4, #7
 80017d8:	401c      	ands	r4, r3
 80017da:	2201      	movs	r2, #1
 80017dc:	f10d 0107 	add.w	r1, sp, #7
 80017e0:	201c      	movs	r0, #28
 80017e2:	f88d 4007 	strb.w	r4, [sp, #7]
 80017e6:	f7ff ffb5 	bl	8001754 <__MPU6050_write>
 80017ea:	b002      	add	sp, #8
 80017ec:	bd10      	pop	{r4, pc}
 80017ee:	f04f 30ff 	mov.w	r0, #4294967295
 80017f2:	e7fa      	b.n	80017ea <MPU6050_accel_set_full_scale_range+0x30>

080017f4 <MPU6050_set_rate_divider>:
 80017f4:	b507      	push	{r0, r1, r2, lr}
 80017f6:	2201      	movs	r2, #1
 80017f8:	f88d 0007 	strb.w	r0, [sp, #7]
 80017fc:	f10d 0107 	add.w	r1, sp, #7
 8001800:	2019      	movs	r0, #25
 8001802:	f7ff ffa7 	bl	8001754 <__MPU6050_write>
 8001806:	b003      	add	sp, #12
 8001808:	f85d fb04 	ldr.w	pc, [sp], #4

0800180c <MPU6050_configuration>:
 800180c:	b507      	push	{r0, r1, r2, lr}
 800180e:	2201      	movs	r2, #1
 8001810:	f10d 0107 	add.w	r1, sp, #7
 8001814:	206b      	movs	r0, #107	; 0x6b
 8001816:	f7ff ff87 	bl	8001728 <__MPU6050_read>
 800181a:	f89d 3007 	ldrb.w	r3, [sp, #7]
 800181e:	f003 0310 	and.w	r3, r3, #16
 8001822:	f043 0308 	orr.w	r3, r3, #8
 8001826:	2201      	movs	r2, #1
 8001828:	f10d 0107 	add.w	r1, sp, #7
 800182c:	206b      	movs	r0, #107	; 0x6b
 800182e:	f88d 3007 	strb.w	r3, [sp, #7]
 8001832:	f7ff ff8f 	bl	8001754 <__MPU6050_write>
 8001836:	b003      	add	sp, #12
 8001838:	f85d fb04 	ldr.w	pc, [sp], #4

0800183c <MPU6050_DLPF_configuration>:
 800183c:	b507      	push	{r0, r1, r2, lr}
 800183e:	2201      	movs	r2, #1
 8001840:	f10d 0107 	add.w	r1, sp, #7
 8001844:	201a      	movs	r0, #26
 8001846:	f7ff ff6f 	bl	8001728 <__MPU6050_read>
 800184a:	f89d 3007 	ldrb.w	r3, [sp, #7]
 800184e:	2201      	movs	r2, #1
 8001850:	f023 033f 	bic.w	r3, r3, #63	; 0x3f
 8001854:	f10d 0107 	add.w	r1, sp, #7
 8001858:	201a      	movs	r0, #26
 800185a:	f88d 3007 	strb.w	r3, [sp, #7]
 800185e:	f7ff ff79 	bl	8001754 <__MPU6050_write>
 8001862:	b003      	add	sp, #12
 8001864:	f85d fb04 	ldr.w	pc, [sp], #4

08001868 <MPU6050_init>:
 8001868:	b510      	push	{r4, lr}
 800186a:	4813      	ldr	r0, [pc, #76]	; (80018b8 <MPU6050_init+0x50>)
 800186c:	f44f 737a 	mov.w	r3, #1000	; 0x3e8
 8001870:	2203      	movs	r2, #3
 8001872:	21d0      	movs	r1, #208	; 0xd0
 8001874:	f001 fbe8 	bl	8003048 <HAL_I2C_IsDeviceReady>
 8001878:	4604      	mov	r4, r0
 800187a:	b110      	cbz	r0, 8001882 <MPU6050_init+0x1a>
 800187c:	f04f 30ff 	mov.w	r0, #4294967295
 8001880:	bd10      	pop	{r4, pc}
 8001882:	f7ff ffc3 	bl	800180c <MPU6050_configuration>
 8001886:	3001      	adds	r0, #1
 8001888:	d0f8      	beq.n	800187c <MPU6050_init+0x14>
 800188a:	4620      	mov	r0, r4
 800188c:	f7ff ffb2 	bl	80017f4 <MPU6050_set_rate_divider>
 8001890:	3001      	adds	r0, #1
 8001892:	d0f3      	beq.n	800187c <MPU6050_init+0x14>
 8001894:	4620      	mov	r0, r4
 8001896:	f7ff ff73 	bl	8001780 <MPU6050_gyro_set_full_scale_range>
 800189a:	3001      	adds	r0, #1
 800189c:	d0ee      	beq.n	800187c <MPU6050_init+0x14>
 800189e:	4620      	mov	r0, r4
 80018a0:	f7ff ff8b 	bl	80017ba <MPU6050_accel_set_full_scale_range>
 80018a4:	3001      	adds	r0, #1
 80018a6:	d0e9      	beq.n	800187c <MPU6050_init+0x14>
 80018a8:	f7ff ffc8 	bl	800183c <MPU6050_DLPF_configuration>
 80018ac:	3001      	adds	r0, #1
 80018ae:	f04f 30ff 	mov.w	r0, #4294967295
 80018b2:	bf18      	it	ne
 80018b4:	2000      	movne	r0, #0
 80018b6:	e7e3      	b.n	8001880 <MPU6050_init+0x18>
 80018b8:	20000160 	.word	0x20000160

080018bc <MPU6050_retrieve_data>:
 80018bc:	4902      	ldr	r1, [pc, #8]	; (80018c8 <MPU6050_retrieve_data+0xc>)
 80018be:	220e      	movs	r2, #14
 80018c0:	203b      	movs	r0, #59	; 0x3b
 80018c2:	f7ff bf31 	b.w	8001728 <__MPU6050_read>
 80018c6:	bf00      	nop
 80018c8:	200001c4 	.word	0x200001c4

080018cc <MPU6050_save_data>:
 80018cc:	e92d 41f0 	stmdb	sp!, {r4, r5, r6, r7, r8, lr}
 80018d0:	4815      	ldr	r0, [pc, #84]	; (8001928 <MPU6050_save_data+0x5c>)
 80018d2:	7a03      	ldrb	r3, [r0, #8]
 80018d4:	7a44      	ldrb	r4, [r0, #9]
 80018d6:	7ac5      	ldrb	r5, [r0, #11]
 80018d8:	7b46      	ldrb	r6, [r0, #13]
 80018da:	7902      	ldrb	r2, [r0, #4]
 80018dc:	7881      	ldrb	r1, [r0, #2]
 80018de:	7807      	ldrb	r7, [r0, #0]
 80018e0:	eb04 2403 	add.w	r4, r4, r3, lsl #8
 80018e4:	7a83      	ldrb	r3, [r0, #10]
 80018e6:	eb05 2503 	add.w	r5, r5, r3, lsl #8
 80018ea:	7b03      	ldrb	r3, [r0, #12]
 80018ec:	eb06 2603 	add.w	r6, r6, r3, lsl #8
 80018f0:	7943      	ldrb	r3, [r0, #5]
 80018f2:	eb03 2302 	add.w	r3, r3, r2, lsl #8
 80018f6:	78c2      	ldrb	r2, [r0, #3]
 80018f8:	eb02 2201 	add.w	r2, r2, r1, lsl #8
 80018fc:	7841      	ldrb	r1, [r0, #1]
 80018fe:	eb01 2107 	add.w	r1, r1, r7, lsl #8
 8001902:	4f0a      	ldr	r7, [pc, #40]	; (800192c <MPU6050_save_data+0x60>)
 8001904:	b224      	sxth	r4, r4
 8001906:	4638      	mov	r0, r7
 8001908:	b22d      	sxth	r5, r5
 800190a:	b236      	sxth	r6, r6
 800190c:	b21b      	sxth	r3, r3
 800190e:	b212      	sxth	r2, r2
 8001910:	b209      	sxth	r1, r1
 8001912:	f7ff fb17 	bl	8000f44 <set_accel_axes>
 8001916:	4633      	mov	r3, r6
 8001918:	462a      	mov	r2, r5
 800191a:	4621      	mov	r1, r4
 800191c:	1db8      	adds	r0, r7, #6
 800191e:	e8bd 41f0 	ldmia.w	sp!, {r4, r5, r6, r7, r8, lr}
 8001922:	f7ff bd83 	b.w	800142c <set_gyro_axes>
 8001926:	bf00      	nop
 8001928:	200001c4 	.word	0x200001c4
 800192c:	200001b8 	.word	0x200001b8

08001930 <MPU6050_get_gy>:
 8001930:	4801      	ldr	r0, [pc, #4]	; (8001938 <MPU6050_get_gy+0x8>)
 8001932:	f7ff bd7f 	b.w	8001434 <get_gy>
 8001936:	bf00      	nop
 8001938:	200001be 	.word	0x200001be

0800193c <MPU6050_get_ax>:
 800193c:	4801      	ldr	r0, [pc, #4]	; (8001944 <MPU6050_get_ax+0x8>)
 800193e:	f7ff bb05 	b.w	8000f4c <get_ax>
 8001942:	bf00      	nop
 8001944:	200001b8 	.word	0x200001b8

08001948 <MPU6050_get_ay>:
 8001948:	4801      	ldr	r0, [pc, #4]	; (8001950 <MPU6050_get_ay+0x8>)
 800194a:	f7ff bb02 	b.w	8000f52 <get_ay>
 800194e:	bf00      	nop
 8001950:	200001b8 	.word	0x200001b8

08001954 <MPU6050_get_az>:
 8001954:	4801      	ldr	r0, [pc, #4]	; (800195c <MPU6050_get_az+0x8>)
 8001956:	f7ff baff 	b.w	8000f58 <get_az>
 800195a:	bf00      	nop
 800195c:	200001b8 	.word	0x200001b8

08001960 <_set_GyroX_offset>:
 8001960:	b507      	push	{r0, r1, r2, lr}
 8001962:	ba40      	rev16	r0, r0
 8001964:	f8ad 0004 	strh.w	r0, [sp, #4]
 8001968:	2202      	movs	r2, #2
 800196a:	a901      	add	r1, sp, #4
 800196c:	2013      	movs	r0, #19
 800196e:	f7ff fef1 	bl	8001754 <__MPU6050_write>
 8001972:	b003      	add	sp, #12
 8001974:	f85d fb04 	ldr.w	pc, [sp], #4

08001978 <_set_GyroY_offset>:
 8001978:	b507      	push	{r0, r1, r2, lr}
 800197a:	ba40      	rev16	r0, r0
 800197c:	f8ad 0004 	strh.w	r0, [sp, #4]
 8001980:	2202      	movs	r2, #2
 8001982:	a901      	add	r1, sp, #4
 8001984:	2015      	movs	r0, #21
 8001986:	f7ff fee5 	bl	8001754 <__MPU6050_write>
 800198a:	b003      	add	sp, #12
 800198c:	f85d fb04 	ldr.w	pc, [sp], #4

08001990 <_set_GyroZ_offset>:
 8001990:	b507      	push	{r0, r1, r2, lr}
 8001992:	ba40      	rev16	r0, r0
 8001994:	f8ad 0004 	strh.w	r0, [sp, #4]
 8001998:	2202      	movs	r2, #2
 800199a:	a901      	add	r1, sp, #4
 800199c:	2017      	movs	r0, #23
 800199e:	f7ff fed9 	bl	8001754 <__MPU6050_write>
 80019a2:	b003      	add	sp, #12
 80019a4:	f85d fb04 	ldr.w	pc, [sp], #4

080019a8 <set_Gyro_offset>:
 80019a8:	b538      	push	{r3, r4, r5, lr}
 80019aa:	460d      	mov	r5, r1
 80019ac:	4614      	mov	r4, r2
 80019ae:	f7ff ffd7 	bl	8001960 <_set_GyroX_offset>
 80019b2:	4628      	mov	r0, r5
 80019b4:	f7ff ffe0 	bl	8001978 <_set_GyroY_offset>
 80019b8:	4620      	mov	r0, r4
 80019ba:	e8bd 4038 	ldmia.w	sp!, {r3, r4, r5, lr}
 80019be:	f7ff bfe7 	b.w	8001990 <_set_GyroZ_offset>
	...

080019c4 <HAL_MspInit>:
 80019c4:	b082      	sub	sp, #8
 80019c6:	4b0c      	ldr	r3, [pc, #48]	; (80019f8 <HAL_MspInit+0x34>)
 80019c8:	2100      	movs	r1, #0
 80019ca:	9100      	str	r1, [sp, #0]
 80019cc:	6c5a      	ldr	r2, [r3, #68]	; 0x44
 80019ce:	f442 4280 	orr.w	r2, r2, #16384	; 0x4000
 80019d2:	645a      	str	r2, [r3, #68]	; 0x44
 80019d4:	6c5a      	ldr	r2, [r3, #68]	; 0x44
 80019d6:	f402 4280 	and.w	r2, r2, #16384	; 0x4000
 80019da:	9200      	str	r2, [sp, #0]
 80019dc:	9a00      	ldr	r2, [sp, #0]
 80019de:	9101      	str	r1, [sp, #4]
 80019e0:	6c1a      	ldr	r2, [r3, #64]	; 0x40
 80019e2:	f042 5280 	orr.w	r2, r2, #268435456	; 0x10000000
 80019e6:	641a      	str	r2, [r3, #64]	; 0x40
 80019e8:	6c1b      	ldr	r3, [r3, #64]	; 0x40
 80019ea:	f003 5380 	and.w	r3, r3, #268435456	; 0x10000000
 80019ee:	9301      	str	r3, [sp, #4]
 80019f0:	9b01      	ldr	r3, [sp, #4]
 80019f2:	b002      	add	sp, #8
 80019f4:	4770      	bx	lr
 80019f6:	bf00      	nop
 80019f8:	40023800 	.word	0x40023800

080019fc <NMI_Handler>:
 80019fc:	e7fe      	b.n	80019fc <NMI_Handler>

080019fe <HardFault_Handler>:
 80019fe:	e7fe      	b.n	80019fe <HardFault_Handler>

08001a00 <MemManage_Handler>:
 8001a00:	e7fe      	b.n	8001a00 <MemManage_Handler>

08001a02 <BusFault_Handler>:
 8001a02:	e7fe      	b.n	8001a02 <BusFault_Handler>

08001a04 <UsageFault_Handler>:
 8001a04:	e7fe      	b.n	8001a04 <UsageFault_Handler>

08001a06 <SVC_Handler>:
 8001a06:	4770      	bx	lr

08001a08 <DebugMon_Handler>:
 8001a08:	4770      	bx	lr

08001a0a <PendSV_Handler>:
 8001a0a:	4770      	bx	lr

08001a0c <SysTick_Handler>:
 8001a0c:	f000 ba00 	b.w	8001e10 <HAL_IncTick>

08001a10 <TIM1_TRG_COM_TIM11_IRQHandler>:
 8001a10:	4801      	ldr	r0, [pc, #4]	; (8001a18 <TIM1_TRG_COM_TIM11_IRQHandler+0x8>)
 8001a12:	f001 befa 	b.w	800380a <HAL_TIM_IRQHandler>
 8001a16:	bf00      	nop
 8001a18:	20000264 	.word	0x20000264

08001a1c <HAL_TIM_PeriodElapsedCallback>:
 8001a1c:	6802      	ldr	r2, [r0, #0]
 8001a1e:	4b03      	ldr	r3, [pc, #12]	; (8001a2c <HAL_TIM_PeriodElapsedCallback+0x10>)
 8001a20:	429a      	cmp	r2, r3
 8001a22:	d101      	bne.n	8001a28 <HAL_TIM_PeriodElapsedCallback+0xc>
 8001a24:	f7ff bc10 	b.w	8001248 <execute_control>
 8001a28:	4770      	bx	lr
 8001a2a:	bf00      	nop
 8001a2c:	40014800 	.word	0x40014800

08001a30 <DMA2_Stream0_IRQHandler>:
 8001a30:	4801      	ldr	r0, [pc, #4]	; (8001a38 <DMA2_Stream0_IRQHandler+0x8>)
 8001a32:	f000 bd61 	b.w	80024f8 <HAL_DMA_IRQHandler>
 8001a36:	bf00      	nop
 8001a38:	200000fc 	.word	0x200000fc

08001a3c <HAL_ADC_ConvCpltCallback>:
 8001a3c:	f7ff bd74 	b.w	8001528 <save_data>

08001a40 <SystemInit>:
 8001a40:	4a03      	ldr	r2, [pc, #12]	; (8001a50 <SystemInit+0x10>)
 8001a42:	f8d2 3088 	ldr.w	r3, [r2, #136]	; 0x88
 8001a46:	f443 0370 	orr.w	r3, r3, #15728640	; 0xf00000
 8001a4a:	f8c2 3088 	str.w	r3, [r2, #136]	; 0x88
 8001a4e:	4770      	bx	lr
 8001a50:	e000ed00 	.word	0xe000ed00

08001a54 <MX_TIM1_Init>:
 8001a54:	b510      	push	{r4, lr}
 8001a56:	4815      	ldr	r0, [pc, #84]	; (8001aac <MX_TIM1_Init+0x58>)
 8001a58:	4b15      	ldr	r3, [pc, #84]	; (8001ab0 <MX_TIM1_Init+0x5c>)
 8001a5a:	2400      	movs	r4, #0
 8001a5c:	b08c      	sub	sp, #48	; 0x30
 8001a5e:	e9c0 3400 	strd	r3, r4, [r0]
 8001a62:	f64f 73ff 	movw	r3, #65535	; 0xffff
 8001a66:	e9c0 3403 	strd	r3, r4, [r0, #12]
 8001a6a:	a903      	add	r1, sp, #12
 8001a6c:	2301      	movs	r3, #1
 8001a6e:	e9cd 4401 	strd	r4, r4, [sp, #4]
 8001a72:	e9c0 4405 	strd	r4, r4, [r0, #20]
 8001a76:	e9cd 3403 	strd	r3, r4, [sp, #12]
 8001a7a:	e9cd 3405 	strd	r3, r4, [sp, #20]
 8001a7e:	e9cd 4407 	strd	r4, r4, [sp, #28]
 8001a82:	e9cd 3409 	strd	r3, r4, [sp, #36]	; 0x24
 8001a86:	6084      	str	r4, [r0, #8]
 8001a88:	940b      	str	r4, [sp, #44]	; 0x2c
 8001a8a:	f002 f807 	bl	8003a9c <HAL_TIM_Encoder_Init>
 8001a8e:	b108      	cbz	r0, 8001a94 <MX_TIM1_Init+0x40>
 8001a90:	f7ff fdda 	bl	8001648 <Error_Handler>
 8001a94:	4805      	ldr	r0, [pc, #20]	; (8001aac <MX_TIM1_Init+0x58>)
 8001a96:	a901      	add	r1, sp, #4
 8001a98:	e9cd 4401 	strd	r4, r4, [sp, #4]
 8001a9c:	f002 f942 	bl	8003d24 <HAL_TIMEx_MasterConfigSynchronization>
 8001aa0:	b108      	cbz	r0, 8001aa6 <MX_TIM1_Init+0x52>
 8001aa2:	f7ff fdd1 	bl	8001648 <Error_Handler>
 8001aa6:	b00c      	add	sp, #48	; 0x30
 8001aa8:	bd10      	pop	{r4, pc}
 8001aaa:	bf00      	nop
 8001aac:	200002ac 	.word	0x200002ac
 8001ab0:	40010000 	.word	0x40010000

08001ab4 <MX_TIM3_Init>:
 8001ab4:	b510      	push	{r4, lr}
 8001ab6:	4814      	ldr	r0, [pc, #80]	; (8001b08 <MX_TIM3_Init+0x54>)
 8001ab8:	4b14      	ldr	r3, [pc, #80]	; (8001b0c <MX_TIM3_Init+0x58>)
 8001aba:	2400      	movs	r4, #0
 8001abc:	b08c      	sub	sp, #48	; 0x30
 8001abe:	e9c0 3400 	strd	r3, r4, [r0]
 8001ac2:	f64f 73ff 	movw	r3, #65535	; 0xffff
 8001ac6:	e9c0 3403 	strd	r3, r4, [r0, #12]
 8001aca:	a903      	add	r1, sp, #12
 8001acc:	2301      	movs	r3, #1
 8001ace:	e9cd 4401 	strd	r4, r4, [sp, #4]
 8001ad2:	e9cd 3403 	strd	r3, r4, [sp, #12]
 8001ad6:	e9cd 3405 	strd	r3, r4, [sp, #20]
 8001ada:	e9cd 4407 	strd	r4, r4, [sp, #28]
 8001ade:	e9cd 3409 	strd	r3, r4, [sp, #36]	; 0x24
 8001ae2:	6084      	str	r4, [r0, #8]
 8001ae4:	6184      	str	r4, [r0, #24]
 8001ae6:	940b      	str	r4, [sp, #44]	; 0x2c
 8001ae8:	f001 ffd8 	bl	8003a9c <HAL_TIM_Encoder_Init>
 8001aec:	b108      	cbz	r0, 8001af2 <MX_TIM3_Init+0x3e>
 8001aee:	f7ff fdab 	bl	8001648 <Error_Handler>
 8001af2:	4805      	ldr	r0, [pc, #20]	; (8001b08 <MX_TIM3_Init+0x54>)
 8001af4:	a901      	add	r1, sp, #4
 8001af6:	e9cd 4401 	strd	r4, r4, [sp, #4]
 8001afa:	f002 f913 	bl	8003d24 <HAL_TIMEx_MasterConfigSynchronization>
 8001afe:	b108      	cbz	r0, 8001b04 <MX_TIM3_Init+0x50>
 8001b00:	f7ff fda2 	bl	8001648 <Error_Handler>
 8001b04:	b00c      	add	sp, #48	; 0x30
 8001b06:	bd10      	pop	{r4, pc}
 8001b08:	2000021c 	.word	0x2000021c
 8001b0c:	40000400 	.word	0x40000400

08001b10 <MX_TIM11_Init>:
 8001b10:	480a      	ldr	r0, [pc, #40]	; (8001b3c <MX_TIM11_Init+0x2c>)
 8001b12:	4a0b      	ldr	r2, [pc, #44]	; (8001b40 <MX_TIM11_Init+0x30>)
 8001b14:	b508      	push	{r3, lr}
 8001b16:	2304      	movs	r3, #4
 8001b18:	e9c0 2300 	strd	r2, r3, [r0]
 8001b1c:	2300      	movs	r3, #0
 8001b1e:	f643 627f 	movw	r2, #15999	; 0x3e7f
 8001b22:	e9c0 3202 	strd	r3, r2, [r0, #8]
 8001b26:	6103      	str	r3, [r0, #16]
 8001b28:	6183      	str	r3, [r0, #24]
 8001b2a:	f001 ff5f 	bl	80039ec <HAL_TIM_Base_Init>
 8001b2e:	b118      	cbz	r0, 8001b38 <MX_TIM11_Init+0x28>
 8001b30:	e8bd 4008 	ldmia.w	sp!, {r3, lr}
 8001b34:	f7ff bd88 	b.w	8001648 <Error_Handler>
 8001b38:	bd08      	pop	{r3, pc}
 8001b3a:	bf00      	nop
 8001b3c:	20000264 	.word	0x20000264
 8001b40:	40014800 	.word	0x40014800

08001b44 <HAL_TIM_Encoder_MspInit>:
 8001b44:	b530      	push	{r4, r5, lr}
 8001b46:	2214      	movs	r2, #20
 8001b48:	b08b      	sub	sp, #44	; 0x2c
 8001b4a:	4604      	mov	r4, r0
 8001b4c:	2100      	movs	r1, #0
 8001b4e:	eb0d 0002 	add.w	r0, sp, r2
 8001b52:	f002 f949 	bl	8003de8 <memset>
 8001b56:	6823      	ldr	r3, [r4, #0]
 8001b58:	4a2a      	ldr	r2, [pc, #168]	; (8001c04 <HAL_TIM_Encoder_MspInit+0xc0>)
 8001b5a:	4293      	cmp	r3, r2
 8001b5c:	d12c      	bne.n	8001bb8 <HAL_TIM_Encoder_MspInit+0x74>
 8001b5e:	4b2a      	ldr	r3, [pc, #168]	; (8001c08 <HAL_TIM_Encoder_MspInit+0xc4>)
 8001b60:	2400      	movs	r4, #0
 8001b62:	9401      	str	r4, [sp, #4]
 8001b64:	6c5a      	ldr	r2, [r3, #68]	; 0x44
 8001b66:	f042 0201 	orr.w	r2, r2, #1
 8001b6a:	645a      	str	r2, [r3, #68]	; 0x44
 8001b6c:	6c5a      	ldr	r2, [r3, #68]	; 0x44
 8001b6e:	f002 0201 	and.w	r2, r2, #1
 8001b72:	9201      	str	r2, [sp, #4]
 8001b74:	9a01      	ldr	r2, [sp, #4]
 8001b76:	9402      	str	r4, [sp, #8]
 8001b78:	6b1a      	ldr	r2, [r3, #48]	; 0x30
 8001b7a:	f042 0201 	orr.w	r2, r2, #1
 8001b7e:	631a      	str	r2, [r3, #48]	; 0x30
 8001b80:	6b1b      	ldr	r3, [r3, #48]	; 0x30
 8001b82:	f003 0301 	and.w	r3, r3, #1
 8001b86:	9302      	str	r3, [sp, #8]
 8001b88:	9b02      	ldr	r3, [sp, #8]
 8001b8a:	f44f 7040 	mov.w	r0, #768	; 0x300
 8001b8e:	2302      	movs	r3, #2
 8001b90:	e9cd 0305 	strd	r0, r3, [sp, #20]
 8001b94:	2501      	movs	r5, #1
 8001b96:	481d      	ldr	r0, [pc, #116]	; (8001c0c <HAL_TIM_Encoder_MspInit+0xc8>)
 8001b98:	9509      	str	r5, [sp, #36]	; 0x24
 8001b9a:	a905      	add	r1, sp, #20
 8001b9c:	e9cd 4407 	strd	r4, r4, [sp, #28]
 8001ba0:	f000 fd68 	bl	8002674 <HAL_GPIO_Init>
 8001ba4:	201a      	movs	r0, #26
 8001ba6:	4622      	mov	r2, r4
 8001ba8:	4629      	mov	r1, r5
 8001baa:	f000 fb7f 	bl	80022ac <HAL_NVIC_SetPriority>
 8001bae:	201a      	movs	r0, #26
 8001bb0:	f000 fbae 	bl	8002310 <HAL_NVIC_EnableIRQ>
 8001bb4:	b00b      	add	sp, #44	; 0x2c
 8001bb6:	bd30      	pop	{r4, r5, pc}
 8001bb8:	4a15      	ldr	r2, [pc, #84]	; (8001c10 <HAL_TIM_Encoder_MspInit+0xcc>)
 8001bba:	4293      	cmp	r3, r2
 8001bbc:	d1fa      	bne.n	8001bb4 <HAL_TIM_Encoder_MspInit+0x70>
 8001bbe:	4b12      	ldr	r3, [pc, #72]	; (8001c08 <HAL_TIM_Encoder_MspInit+0xc4>)
 8001bc0:	4812      	ldr	r0, [pc, #72]	; (8001c0c <HAL_TIM_Encoder_MspInit+0xc8>)
 8001bc2:	2200      	movs	r2, #0
 8001bc4:	9203      	str	r2, [sp, #12]
 8001bc6:	6c19      	ldr	r1, [r3, #64]	; 0x40
 8001bc8:	f041 0102 	orr.w	r1, r1, #2
 8001bcc:	6419      	str	r1, [r3, #64]	; 0x40
 8001bce:	6c19      	ldr	r1, [r3, #64]	; 0x40
 8001bd0:	f001 0102 	and.w	r1, r1, #2
 8001bd4:	9103      	str	r1, [sp, #12]
 8001bd6:	9903      	ldr	r1, [sp, #12]
 8001bd8:	9204      	str	r2, [sp, #16]
 8001bda:	6b19      	ldr	r1, [r3, #48]	; 0x30
 8001bdc:	f041 0101 	orr.w	r1, r1, #1
 8001be0:	6319      	str	r1, [r3, #48]	; 0x30
 8001be2:	6b1b      	ldr	r3, [r3, #48]	; 0x30
 8001be4:	f003 0301 	and.w	r3, r3, #1
 8001be8:	9304      	str	r3, [sp, #16]
 8001bea:	9b04      	ldr	r3, [sp, #16]
 8001bec:	21c0      	movs	r1, #192	; 0xc0
 8001bee:	2302      	movs	r3, #2
 8001bf0:	e9cd 1305 	strd	r1, r3, [sp, #20]
 8001bf4:	a905      	add	r1, sp, #20
 8001bf6:	e9cd 2207 	strd	r2, r2, [sp, #28]
 8001bfa:	9309      	str	r3, [sp, #36]	; 0x24
 8001bfc:	f000 fd3a 	bl	8002674 <HAL_GPIO_Init>
 8001c00:	e7d8      	b.n	8001bb4 <HAL_TIM_Encoder_MspInit+0x70>
 8001c02:	bf00      	nop
 8001c04:	40010000 	.word	0x40010000
 8001c08:	40023800 	.word	0x40023800
 8001c0c:	40020000 	.word	0x40020000
 8001c10:	40000400 	.word	0x40000400

08001c14 <HAL_TIM_Base_MspInit>:
 8001c14:	b507      	push	{r0, r1, r2, lr}
 8001c16:	6803      	ldr	r3, [r0, #0]
 8001c18:	4a15      	ldr	r2, [pc, #84]	; (8001c70 <HAL_TIM_Base_MspInit+0x5c>)
 8001c1a:	4293      	cmp	r3, r2
 8001c1c:	d10e      	bne.n	8001c3c <HAL_TIM_Base_MspInit+0x28>
 8001c1e:	2300      	movs	r3, #0
 8001c20:	9300      	str	r3, [sp, #0]
 8001c22:	4b14      	ldr	r3, [pc, #80]	; (8001c74 <HAL_TIM_Base_MspInit+0x60>)
 8001c24:	6c5a      	ldr	r2, [r3, #68]	; 0x44
 8001c26:	f442 3200 	orr.w	r2, r2, #131072	; 0x20000
 8001c2a:	645a      	str	r2, [r3, #68]	; 0x44
 8001c2c:	6c5b      	ldr	r3, [r3, #68]	; 0x44
 8001c2e:	f403 3300 	and.w	r3, r3, #131072	; 0x20000
 8001c32:	9300      	str	r3, [sp, #0]
 8001c34:	9b00      	ldr	r3, [sp, #0]
 8001c36:	b003      	add	sp, #12
 8001c38:	f85d fb04 	ldr.w	pc, [sp], #4
 8001c3c:	4a0e      	ldr	r2, [pc, #56]	; (8001c78 <HAL_TIM_Base_MspInit+0x64>)
 8001c3e:	4293      	cmp	r3, r2
 8001c40:	d1f9      	bne.n	8001c36 <HAL_TIM_Base_MspInit+0x22>
 8001c42:	2200      	movs	r2, #0
 8001c44:	4b0b      	ldr	r3, [pc, #44]	; (8001c74 <HAL_TIM_Base_MspInit+0x60>)
 8001c46:	9201      	str	r2, [sp, #4]
 8001c48:	6c59      	ldr	r1, [r3, #68]	; 0x44
 8001c4a:	f441 2180 	orr.w	r1, r1, #262144	; 0x40000
 8001c4e:	6459      	str	r1, [r3, #68]	; 0x44
 8001c50:	6c5b      	ldr	r3, [r3, #68]	; 0x44
 8001c52:	f403 2380 	and.w	r3, r3, #262144	; 0x40000
 8001c56:	9301      	str	r3, [sp, #4]
 8001c58:	4611      	mov	r1, r2
 8001c5a:	201a      	movs	r0, #26
 8001c5c:	9b01      	ldr	r3, [sp, #4]
 8001c5e:	f000 fb25 	bl	80022ac <HAL_NVIC_SetPriority>
 8001c62:	201a      	movs	r0, #26
 8001c64:	b003      	add	sp, #12
 8001c66:	f85d eb04 	ldr.w	lr, [sp], #4
 8001c6a:	f000 bb51 	b.w	8002310 <HAL_NVIC_EnableIRQ>
 8001c6e:	bf00      	nop
 8001c70:	40014400 	.word	0x40014400
 8001c74:	40023800 	.word	0x40023800
 8001c78:	40014800 	.word	0x40014800

08001c7c <HAL_TIM_MspPostInit>:
 8001c7c:	b510      	push	{r4, lr}
 8001c7e:	4604      	mov	r4, r0
 8001c80:	b086      	sub	sp, #24
 8001c82:	2214      	movs	r2, #20
 8001c84:	2100      	movs	r1, #0
 8001c86:	a801      	add	r0, sp, #4
 8001c88:	f002 f8ae 	bl	8003de8 <memset>
 8001c8c:	6822      	ldr	r2, [r4, #0]
 8001c8e:	4b0f      	ldr	r3, [pc, #60]	; (8001ccc <HAL_TIM_MspPostInit+0x50>)
 8001c90:	429a      	cmp	r2, r3
 8001c92:	d118      	bne.n	8001cc6 <HAL_TIM_MspPostInit+0x4a>
 8001c94:	4a0e      	ldr	r2, [pc, #56]	; (8001cd0 <HAL_TIM_MspPostInit+0x54>)
 8001c96:	480f      	ldr	r0, [pc, #60]	; (8001cd4 <HAL_TIM_MspPostInit+0x58>)
 8001c98:	2300      	movs	r3, #0
 8001c9a:	9300      	str	r3, [sp, #0]
 8001c9c:	6b11      	ldr	r1, [r2, #48]	; 0x30
 8001c9e:	f041 0102 	orr.w	r1, r1, #2
 8001ca2:	6311      	str	r1, [r2, #48]	; 0x30
 8001ca4:	6b12      	ldr	r2, [r2, #48]	; 0x30
 8001ca6:	f002 0202 	and.w	r2, r2, #2
 8001caa:	9200      	str	r2, [sp, #0]
 8001cac:	f44f 7180 	mov.w	r1, #256	; 0x100
 8001cb0:	9a00      	ldr	r2, [sp, #0]
 8001cb2:	2202      	movs	r2, #2
 8001cb4:	e9cd 1201 	strd	r1, r2, [sp, #4]
 8001cb8:	e9cd 3303 	strd	r3, r3, [sp, #12]
 8001cbc:	a901      	add	r1, sp, #4
 8001cbe:	2303      	movs	r3, #3
 8001cc0:	9305      	str	r3, [sp, #20]
 8001cc2:	f000 fcd7 	bl	8002674 <HAL_GPIO_Init>
 8001cc6:	b006      	add	sp, #24
 8001cc8:	bd10      	pop	{r4, pc}
 8001cca:	bf00      	nop
 8001ccc:	40014400 	.word	0x40014400
 8001cd0:	40023800 	.word	0x40023800
 8001cd4:	40020400 	.word	0x40020400

08001cd8 <MX_TIM10_Init>:
 8001cd8:	b500      	push	{lr}
 8001cda:	b089      	sub	sp, #36	; 0x24
 8001cdc:	221c      	movs	r2, #28
 8001cde:	2100      	movs	r1, #0
 8001ce0:	a801      	add	r0, sp, #4
 8001ce2:	f002 f881 	bl	8003de8 <memset>
 8001ce6:	4814      	ldr	r0, [pc, #80]	; (8001d38 <MX_TIM10_Init+0x60>)
 8001ce8:	4a14      	ldr	r2, [pc, #80]	; (8001d3c <MX_TIM10_Init+0x64>)
 8001cea:	2300      	movs	r3, #0
 8001cec:	e9c0 2300 	strd	r2, r3, [r0]
 8001cf0:	2263      	movs	r2, #99	; 0x63
 8001cf2:	e9c0 2303 	strd	r2, r3, [r0, #12]
 8001cf6:	6083      	str	r3, [r0, #8]
 8001cf8:	6183      	str	r3, [r0, #24]
 8001cfa:	f001 fe77 	bl	80039ec <HAL_TIM_Base_Init>
 8001cfe:	b108      	cbz	r0, 8001d04 <MX_TIM10_Init+0x2c>
 8001d00:	f7ff fca2 	bl	8001648 <Error_Handler>
 8001d04:	480c      	ldr	r0, [pc, #48]	; (8001d38 <MX_TIM10_Init+0x60>)
 8001d06:	f001 fe9d 	bl	8003a44 <HAL_TIM_PWM_Init>
 8001d0a:	b108      	cbz	r0, 8001d10 <MX_TIM10_Init+0x38>
 8001d0c:	f7ff fc9c 	bl	8001648 <Error_Handler>
 8001d10:	2200      	movs	r2, #0
 8001d12:	2360      	movs	r3, #96	; 0x60
 8001d14:	4808      	ldr	r0, [pc, #32]	; (8001d38 <MX_TIM10_Init+0x60>)
 8001d16:	9203      	str	r2, [sp, #12]
 8001d18:	a901      	add	r1, sp, #4
 8001d1a:	e9cd 3201 	strd	r3, r2, [sp, #4]
 8001d1e:	9205      	str	r2, [sp, #20]
 8001d20:	f001 ff3e 	bl	8003ba0 <HAL_TIM_PWM_ConfigChannel>
 8001d24:	b108      	cbz	r0, 8001d2a <MX_TIM10_Init+0x52>
 8001d26:	f7ff fc8f 	bl	8001648 <Error_Handler>
 8001d2a:	4803      	ldr	r0, [pc, #12]	; (8001d38 <MX_TIM10_Init+0x60>)
 8001d2c:	f7ff ffa6 	bl	8001c7c <HAL_TIM_MspPostInit>
 8001d30:	b009      	add	sp, #36	; 0x24
 8001d32:	f85d fb04 	ldr.w	pc, [sp], #4
 8001d36:	bf00      	nop
 8001d38:	200001d4 	.word	0x200001d4
 8001d3c:	40014400 	.word	0x40014400

08001d40 <Reset_Handler>:
 8001d40:	f8df d034 	ldr.w	sp, [pc, #52]	; 8001d78 <LoopFillZerobss+0x12>
 8001d44:	480d      	ldr	r0, [pc, #52]	; (8001d7c <LoopFillZerobss+0x16>)
 8001d46:	490e      	ldr	r1, [pc, #56]	; (8001d80 <LoopFillZerobss+0x1a>)
 8001d48:	4a0e      	ldr	r2, [pc, #56]	; (8001d84 <LoopFillZerobss+0x1e>)
 8001d4a:	2300      	movs	r3, #0
 8001d4c:	e002      	b.n	8001d54 <LoopCopyDataInit>

08001d4e <CopyDataInit>:
 8001d4e:	58d4      	ldr	r4, [r2, r3]
 8001d50:	50c4      	str	r4, [r0, r3]
 8001d52:	3304      	adds	r3, #4

08001d54 <LoopCopyDataInit>:
 8001d54:	18c4      	adds	r4, r0, r3
 8001d56:	428c      	cmp	r4, r1
 8001d58:	d3f9      	bcc.n	8001d4e <CopyDataInit>
 8001d5a:	4a0b      	ldr	r2, [pc, #44]	; (8001d88 <LoopFillZerobss+0x22>)
 8001d5c:	4c0b      	ldr	r4, [pc, #44]	; (8001d8c <LoopFillZerobss+0x26>)
 8001d5e:	2300      	movs	r3, #0
 8001d60:	e001      	b.n	8001d66 <LoopFillZerobss>

08001d62 <FillZerobss>:
 8001d62:	6013      	str	r3, [r2, #0]
 8001d64:	3204      	adds	r2, #4

08001d66 <LoopFillZerobss>:
 8001d66:	42a2      	cmp	r2, r4
 8001d68:	d3fb      	bcc.n	8001d62 <FillZerobss>
 8001d6a:	f7ff fe69 	bl	8001a40 <SystemInit>
 8001d6e:	f002 f817 	bl	8003da0 <__libc_init_array>
 8001d72:	f7ff fc31 	bl	80015d8 <main>
 8001d76:	4770      	bx	lr
 8001d78:	20018000 	.word	0x20018000
 8001d7c:	20000000 	.word	0x20000000
 8001d80:	20000078 	.word	0x20000078
 8001d84:	08004578 	.word	0x08004578
 8001d88:	20000078 	.word	0x20000078
 8001d8c:	200002f8 	.word	0x200002f8

08001d90 <ADC_IRQHandler>:
 8001d90:	e7fe      	b.n	8001d90 <ADC_IRQHandler>
	...

08001d94 <HAL_InitTick>:
 8001d94:	b538      	push	{r3, r4, r5, lr}
 8001d96:	4a0e      	ldr	r2, [pc, #56]	; (8001dd0 <HAL_InitTick+0x3c>)
 8001d98:	4b0e      	ldr	r3, [pc, #56]	; (8001dd4 <HAL_InitTick+0x40>)
 8001d9a:	4605      	mov	r5, r0
 8001d9c:	7818      	ldrb	r0, [r3, #0]
 8001d9e:	f44f 737a 	mov.w	r3, #1000	; 0x3e8
 8001da2:	fbb3 f3f0 	udiv	r3, r3, r0
 8001da6:	6810      	ldr	r0, [r2, #0]
 8001da8:	fbb0 f0f3 	udiv	r0, r0, r3
 8001dac:	f000 fabe 	bl	800232c <HAL_SYSTICK_Config>
 8001db0:	4604      	mov	r4, r0
 8001db2:	b958      	cbnz	r0, 8001dcc <HAL_InitTick+0x38>
 8001db4:	2d0f      	cmp	r5, #15
 8001db6:	d809      	bhi.n	8001dcc <HAL_InitTick+0x38>
 8001db8:	4602      	mov	r2, r0
 8001dba:	4629      	mov	r1, r5
 8001dbc:	f04f 30ff 	mov.w	r0, #4294967295
 8001dc0:	f000 fa74 	bl	80022ac <HAL_NVIC_SetPriority>
 8001dc4:	4b04      	ldr	r3, [pc, #16]	; (8001dd8 <HAL_InitTick+0x44>)
 8001dc6:	4620      	mov	r0, r4
 8001dc8:	601d      	str	r5, [r3, #0]
 8001dca:	bd38      	pop	{r3, r4, r5, pc}
 8001dcc:	2001      	movs	r0, #1
 8001dce:	e7fc      	b.n	8001dca <HAL_InitTick+0x36>
 8001dd0:	20000004 	.word	0x20000004
 8001dd4:	20000008 	.word	0x20000008
 8001dd8:	2000000c 	.word	0x2000000c

08001ddc <HAL_Init>:
 8001ddc:	b508      	push	{r3, lr}
 8001dde:	4b0b      	ldr	r3, [pc, #44]	; (8001e0c <HAL_Init+0x30>)
 8001de0:	681a      	ldr	r2, [r3, #0]
 8001de2:	f442 7200 	orr.w	r2, r2, #512	; 0x200
 8001de6:	601a      	str	r2, [r3, #0]
 8001de8:	681a      	ldr	r2, [r3, #0]
 8001dea:	f442 6280 	orr.w	r2, r2, #1024	; 0x400
 8001dee:	601a      	str	r2, [r3, #0]
 8001df0:	681a      	ldr	r2, [r3, #0]
 8001df2:	f442 7280 	orr.w	r2, r2, #256	; 0x100
 8001df6:	601a      	str	r2, [r3, #0]
 8001df8:	2003      	movs	r0, #3
 8001dfa:	f000 fa45 	bl	8002288 <HAL_NVIC_SetPriorityGrouping>
 8001dfe:	2000      	movs	r0, #0
 8001e00:	f7ff ffc8 	bl	8001d94 <HAL_InitTick>
 8001e04:	f7ff fdde 	bl	80019c4 <HAL_MspInit>
 8001e08:	2000      	movs	r0, #0
 8001e0a:	bd08      	pop	{r3, pc}
 8001e0c:	40023c00 	.word	0x40023c00

08001e10 <HAL_IncTick>:
 8001e10:	4a03      	ldr	r2, [pc, #12]	; (8001e20 <HAL_IncTick+0x10>)
 8001e12:	4b04      	ldr	r3, [pc, #16]	; (8001e24 <HAL_IncTick+0x14>)
 8001e14:	6811      	ldr	r1, [r2, #0]
 8001e16:	781b      	ldrb	r3, [r3, #0]
 8001e18:	440b      	add	r3, r1
 8001e1a:	6013      	str	r3, [r2, #0]
 8001e1c:	4770      	bx	lr
 8001e1e:	bf00      	nop
 8001e20:	200002f4 	.word	0x200002f4
 8001e24:	20000008 	.word	0x20000008

08001e28 <HAL_GetTick>:
 8001e28:	4b01      	ldr	r3, [pc, #4]	; (8001e30 <HAL_GetTick+0x8>)
 8001e2a:	6818      	ldr	r0, [r3, #0]
 8001e2c:	4770      	bx	lr
 8001e2e:	bf00      	nop
 8001e30:	200002f4 	.word	0x200002f4

08001e34 <HAL_Delay>:
 8001e34:	b538      	push	{r3, r4, r5, lr}
 8001e36:	4604      	mov	r4, r0
 8001e38:	f7ff fff6 	bl	8001e28 <HAL_GetTick>
 8001e3c:	1c63      	adds	r3, r4, #1
 8001e3e:	bf1c      	itt	ne
 8001e40:	4b05      	ldrne	r3, [pc, #20]	; (8001e58 <HAL_Delay+0x24>)
 8001e42:	781b      	ldrbne	r3, [r3, #0]
 8001e44:	4605      	mov	r5, r0
 8001e46:	bf18      	it	ne
 8001e48:	18e4      	addne	r4, r4, r3
 8001e4a:	f7ff ffed 	bl	8001e28 <HAL_GetTick>
 8001e4e:	1b43      	subs	r3, r0, r5
 8001e50:	42a3      	cmp	r3, r4
 8001e52:	d3fa      	bcc.n	8001e4a <HAL_Delay+0x16>
 8001e54:	bd38      	pop	{r3, r4, r5, pc}
 8001e56:	bf00      	nop
 8001e58:	20000008 	.word	0x20000008

08001e5c <HAL_ADC_Init>:
 8001e5c:	b538      	push	{r3, r4, r5, lr}
 8001e5e:	4604      	mov	r4, r0
 8001e60:	2800      	cmp	r0, #0
 8001e62:	f000 809b 	beq.w	8001f9c <HAL_ADC_Init+0x140>
 8001e66:	6c05      	ldr	r5, [r0, #64]	; 0x40
 8001e68:	b925      	cbnz	r5, 8001e74 <HAL_ADC_Init+0x18>
 8001e6a:	f7ff f8ad 	bl	8000fc8 <HAL_ADC_MspInit>
 8001e6e:	6465      	str	r5, [r4, #68]	; 0x44
 8001e70:	f884 503c 	strb.w	r5, [r4, #60]	; 0x3c
 8001e74:	6c23      	ldr	r3, [r4, #64]	; 0x40
 8001e76:	06db      	lsls	r3, r3, #27
 8001e78:	f100 808e 	bmi.w	8001f98 <HAL_ADC_Init+0x13c>
 8001e7c:	6c23      	ldr	r3, [r4, #64]	; 0x40
 8001e7e:	f423 5388 	bic.w	r3, r3, #4352	; 0x1100
 8001e82:	f023 0302 	bic.w	r3, r3, #2
 8001e86:	f043 0302 	orr.w	r3, r3, #2
 8001e8a:	6423      	str	r3, [r4, #64]	; 0x40
 8001e8c:	4b44      	ldr	r3, [pc, #272]	; (8001fa0 <HAL_ADC_Init+0x144>)
 8001e8e:	685a      	ldr	r2, [r3, #4]
 8001e90:	f422 3240 	bic.w	r2, r2, #196608	; 0x30000
 8001e94:	605a      	str	r2, [r3, #4]
 8001e96:	685a      	ldr	r2, [r3, #4]
 8001e98:	6861      	ldr	r1, [r4, #4]
 8001e9a:	430a      	orrs	r2, r1
 8001e9c:	605a      	str	r2, [r3, #4]
 8001e9e:	6823      	ldr	r3, [r4, #0]
 8001ea0:	6921      	ldr	r1, [r4, #16]
 8001ea2:	685a      	ldr	r2, [r3, #4]
 8001ea4:	f422 7280 	bic.w	r2, r2, #256	; 0x100
 8001ea8:	605a      	str	r2, [r3, #4]
 8001eaa:	685a      	ldr	r2, [r3, #4]
 8001eac:	ea42 2201 	orr.w	r2, r2, r1, lsl #8
 8001eb0:	605a      	str	r2, [r3, #4]
 8001eb2:	685a      	ldr	r2, [r3, #4]
 8001eb4:	68a1      	ldr	r1, [r4, #8]
 8001eb6:	f022 7240 	bic.w	r2, r2, #50331648	; 0x3000000
 8001eba:	605a      	str	r2, [r3, #4]
 8001ebc:	685a      	ldr	r2, [r3, #4]
 8001ebe:	430a      	orrs	r2, r1
 8001ec0:	605a      	str	r2, [r3, #4]
 8001ec2:	689a      	ldr	r2, [r3, #8]
 8001ec4:	68e1      	ldr	r1, [r4, #12]
 8001ec6:	f422 6200 	bic.w	r2, r2, #2048	; 0x800
 8001eca:	609a      	str	r2, [r3, #8]
 8001ecc:	689a      	ldr	r2, [r3, #8]
 8001ece:	430a      	orrs	r2, r1
 8001ed0:	609a      	str	r2, [r3, #8]
 8001ed2:	4934      	ldr	r1, [pc, #208]	; (8001fa4 <HAL_ADC_Init+0x148>)
 8001ed4:	6aa2      	ldr	r2, [r4, #40]	; 0x28
 8001ed6:	428a      	cmp	r2, r1
 8001ed8:	d052      	beq.n	8001f80 <HAL_ADC_Init+0x124>
 8001eda:	6899      	ldr	r1, [r3, #8]
 8001edc:	f021 6170 	bic.w	r1, r1, #251658240	; 0xf000000
 8001ee0:	6099      	str	r1, [r3, #8]
 8001ee2:	6899      	ldr	r1, [r3, #8]
 8001ee4:	430a      	orrs	r2, r1
 8001ee6:	609a      	str	r2, [r3, #8]
 8001ee8:	689a      	ldr	r2, [r3, #8]
 8001eea:	6ae1      	ldr	r1, [r4, #44]	; 0x2c
 8001eec:	f022 5240 	bic.w	r2, r2, #805306368	; 0x30000000
 8001ef0:	609a      	str	r2, [r3, #8]
 8001ef2:	689a      	ldr	r2, [r3, #8]
 8001ef4:	430a      	orrs	r2, r1
 8001ef6:	609a      	str	r2, [r3, #8]
 8001ef8:	689a      	ldr	r2, [r3, #8]
 8001efa:	f022 0202 	bic.w	r2, r2, #2
 8001efe:	609a      	str	r2, [r3, #8]
 8001f00:	689a      	ldr	r2, [r3, #8]
 8001f02:	7e21      	ldrb	r1, [r4, #24]
 8001f04:	ea42 0241 	orr.w	r2, r2, r1, lsl #1
 8001f08:	609a      	str	r2, [r3, #8]
 8001f0a:	f894 2020 	ldrb.w	r2, [r4, #32]
 8001f0e:	2a00      	cmp	r2, #0
 8001f10:	d03e      	beq.n	8001f90 <HAL_ADC_Init+0x134>
 8001f12:	685a      	ldr	r2, [r3, #4]
 8001f14:	6a61      	ldr	r1, [r4, #36]	; 0x24
 8001f16:	f442 6200 	orr.w	r2, r2, #2048	; 0x800
 8001f1a:	605a      	str	r2, [r3, #4]
 8001f1c:	685a      	ldr	r2, [r3, #4]
 8001f1e:	f422 4260 	bic.w	r2, r2, #57344	; 0xe000
 8001f22:	605a      	str	r2, [r3, #4]
 8001f24:	685a      	ldr	r2, [r3, #4]
 8001f26:	3901      	subs	r1, #1
 8001f28:	ea42 3241 	orr.w	r2, r2, r1, lsl #13
 8001f2c:	605a      	str	r2, [r3, #4]
 8001f2e:	6ada      	ldr	r2, [r3, #44]	; 0x2c
 8001f30:	69e1      	ldr	r1, [r4, #28]
 8001f32:	f422 0270 	bic.w	r2, r2, #15728640	; 0xf00000
 8001f36:	62da      	str	r2, [r3, #44]	; 0x2c
 8001f38:	6ada      	ldr	r2, [r3, #44]	; 0x2c
 8001f3a:	3901      	subs	r1, #1
 8001f3c:	ea42 5201 	orr.w	r2, r2, r1, lsl #20
 8001f40:	62da      	str	r2, [r3, #44]	; 0x2c
 8001f42:	689a      	ldr	r2, [r3, #8]
 8001f44:	f422 7200 	bic.w	r2, r2, #512	; 0x200
 8001f48:	609a      	str	r2, [r3, #8]
 8001f4a:	689a      	ldr	r2, [r3, #8]
 8001f4c:	f894 1030 	ldrb.w	r1, [r4, #48]	; 0x30
 8001f50:	ea42 2241 	orr.w	r2, r2, r1, lsl #9
 8001f54:	609a      	str	r2, [r3, #8]
 8001f56:	689a      	ldr	r2, [r3, #8]
 8001f58:	6961      	ldr	r1, [r4, #20]
 8001f5a:	f422 6280 	bic.w	r2, r2, #1024	; 0x400
 8001f5e:	609a      	str	r2, [r3, #8]
 8001f60:	689a      	ldr	r2, [r3, #8]
 8001f62:	2000      	movs	r0, #0
 8001f64:	ea42 2281 	orr.w	r2, r2, r1, lsl #10
 8001f68:	609a      	str	r2, [r3, #8]
 8001f6a:	6460      	str	r0, [r4, #68]	; 0x44
 8001f6c:	6c23      	ldr	r3, [r4, #64]	; 0x40
 8001f6e:	f023 0303 	bic.w	r3, r3, #3
 8001f72:	f043 0301 	orr.w	r3, r3, #1
 8001f76:	6423      	str	r3, [r4, #64]	; 0x40
 8001f78:	2300      	movs	r3, #0
 8001f7a:	f884 303c 	strb.w	r3, [r4, #60]	; 0x3c
 8001f7e:	bd38      	pop	{r3, r4, r5, pc}
 8001f80:	689a      	ldr	r2, [r3, #8]
 8001f82:	f022 6270 	bic.w	r2, r2, #251658240	; 0xf000000
 8001f86:	609a      	str	r2, [r3, #8]
 8001f88:	689a      	ldr	r2, [r3, #8]
 8001f8a:	f022 5240 	bic.w	r2, r2, #805306368	; 0x30000000
 8001f8e:	e7b2      	b.n	8001ef6 <HAL_ADC_Init+0x9a>
 8001f90:	685a      	ldr	r2, [r3, #4]
 8001f92:	f422 6200 	bic.w	r2, r2, #2048	; 0x800
 8001f96:	e7c9      	b.n	8001f2c <HAL_ADC_Init+0xd0>
 8001f98:	2001      	movs	r0, #1
 8001f9a:	e7ed      	b.n	8001f78 <HAL_ADC_Init+0x11c>
 8001f9c:	2001      	movs	r0, #1
 8001f9e:	e7ee      	b.n	8001f7e <HAL_ADC_Init+0x122>
 8001fa0:	40012300 	.word	0x40012300
 8001fa4:	0f000001 	.word	0x0f000001

08001fa8 <HAL_ADC_Start_DMA>:
 8001fa8:	b573      	push	{r0, r1, r4, r5, r6, lr}
 8001faa:	4613      	mov	r3, r2
 8001fac:	2200      	movs	r2, #0
 8001fae:	9201      	str	r2, [sp, #4]
 8001fb0:	f890 203c 	ldrb.w	r2, [r0, #60]	; 0x3c
 8001fb4:	2a01      	cmp	r2, #1
 8001fb6:	4605      	mov	r5, r0
 8001fb8:	d07a      	beq.n	80020b0 <HAL_ADC_Start_DMA+0x108>
 8001fba:	2201      	movs	r2, #1
 8001fbc:	6806      	ldr	r6, [r0, #0]
 8001fbe:	f880 203c 	strb.w	r2, [r0, #60]	; 0x3c
 8001fc2:	68b2      	ldr	r2, [r6, #8]
 8001fc4:	07d4      	lsls	r4, r2, #31
 8001fc6:	d549      	bpl.n	800205c <HAL_ADC_Start_DMA+0xb4>
 8001fc8:	68b2      	ldr	r2, [r6, #8]
 8001fca:	05d0      	lsls	r0, r2, #23
 8001fcc:	d459      	bmi.n	8002082 <HAL_ADC_Start_DMA+0xda>
 8001fce:	68b4      	ldr	r4, [r6, #8]
 8001fd0:	f014 0401 	ands.w	r4, r4, #1
 8001fd4:	d063      	beq.n	800209e <HAL_ADC_Start_DMA+0xf6>
 8001fd6:	6c28      	ldr	r0, [r5, #64]	; 0x40
 8001fd8:	f420 60e0 	bic.w	r0, r0, #1792	; 0x700
 8001fdc:	f020 0001 	bic.w	r0, r0, #1
 8001fe0:	f440 7080 	orr.w	r0, r0, #256	; 0x100
 8001fe4:	6428      	str	r0, [r5, #64]	; 0x40
 8001fe6:	6872      	ldr	r2, [r6, #4]
 8001fe8:	0552      	lsls	r2, r2, #21
 8001fea:	bf41      	itttt	mi
 8001fec:	6c28      	ldrmi	r0, [r5, #64]	; 0x40
 8001fee:	f420 5040 	bicmi.w	r0, r0, #12288	; 0x3000
 8001ff2:	f440 5080 	orrmi.w	r0, r0, #4096	; 0x1000
 8001ff6:	6428      	strmi	r0, [r5, #64]	; 0x40
 8001ff8:	6c2a      	ldr	r2, [r5, #64]	; 0x40
 8001ffa:	6ba8      	ldr	r0, [r5, #56]	; 0x38
 8001ffc:	f412 5280 	ands.w	r2, r2, #4096	; 0x1000
 8002000:	bf1c      	itt	ne
 8002002:	6c6a      	ldrne	r2, [r5, #68]	; 0x44
 8002004:	f022 0206 	bicne.w	r2, r2, #6
 8002008:	646a      	str	r2, [r5, #68]	; 0x44
 800200a:	2400      	movs	r4, #0
 800200c:	4a2a      	ldr	r2, [pc, #168]	; (80020b8 <HAL_ADC_Start_DMA+0x110>)
 800200e:	f885 403c 	strb.w	r4, [r5, #60]	; 0x3c
 8002012:	63c2      	str	r2, [r0, #60]	; 0x3c
 8002014:	4a29      	ldr	r2, [pc, #164]	; (80020bc <HAL_ADC_Start_DMA+0x114>)
 8002016:	6402      	str	r2, [r0, #64]	; 0x40
 8002018:	4a29      	ldr	r2, [pc, #164]	; (80020c0 <HAL_ADC_Start_DMA+0x118>)
 800201a:	64c2      	str	r2, [r0, #76]	; 0x4c
 800201c:	f06f 0222 	mvn.w	r2, #34	; 0x22
 8002020:	6032      	str	r2, [r6, #0]
 8002022:	6872      	ldr	r2, [r6, #4]
 8002024:	f042 6280 	orr.w	r2, r2, #67108864	; 0x4000000
 8002028:	6072      	str	r2, [r6, #4]
 800202a:	68b2      	ldr	r2, [r6, #8]
 800202c:	f442 7280 	orr.w	r2, r2, #256	; 0x100
 8002030:	60b2      	str	r2, [r6, #8]
 8002032:	460a      	mov	r2, r1
 8002034:	f106 014c 	add.w	r1, r6, #76	; 0x4c
 8002038:	f000 fa24 	bl	8002484 <HAL_DMA_Start_IT>
 800203c:	4b21      	ldr	r3, [pc, #132]	; (80020c4 <HAL_ADC_Start_DMA+0x11c>)
 800203e:	682a      	ldr	r2, [r5, #0]
 8002040:	6859      	ldr	r1, [r3, #4]
 8002042:	f011 011f 	ands.w	r1, r1, #31
 8002046:	d121      	bne.n	800208c <HAL_ADC_Start_DMA+0xe4>
 8002048:	6890      	ldr	r0, [r2, #8]
 800204a:	f010 5040 	ands.w	r0, r0, #805306368	; 0x30000000
 800204e:	d131      	bne.n	80020b4 <HAL_ADC_Start_DMA+0x10c>
 8002050:	6893      	ldr	r3, [r2, #8]
 8002052:	f043 4380 	orr.w	r3, r3, #1073741824	; 0x40000000
 8002056:	6093      	str	r3, [r2, #8]
 8002058:	b002      	add	sp, #8
 800205a:	bd70      	pop	{r4, r5, r6, pc}
 800205c:	68b2      	ldr	r2, [r6, #8]
 800205e:	f042 0201 	orr.w	r2, r2, #1
 8002062:	60b2      	str	r2, [r6, #8]
 8002064:	4a18      	ldr	r2, [pc, #96]	; (80020c8 <HAL_ADC_Start_DMA+0x120>)
 8002066:	6810      	ldr	r0, [r2, #0]
 8002068:	4a18      	ldr	r2, [pc, #96]	; (80020cc <HAL_ADC_Start_DMA+0x124>)
 800206a:	fbb0 f0f2 	udiv	r0, r0, r2
 800206e:	eb00 0040 	add.w	r0, r0, r0, lsl #1
 8002072:	9001      	str	r0, [sp, #4]
 8002074:	9a01      	ldr	r2, [sp, #4]
 8002076:	2a00      	cmp	r2, #0
 8002078:	d0a6      	beq.n	8001fc8 <HAL_ADC_Start_DMA+0x20>
 800207a:	9a01      	ldr	r2, [sp, #4]
 800207c:	3a01      	subs	r2, #1
 800207e:	9201      	str	r2, [sp, #4]
 8002080:	e7f8      	b.n	8002074 <HAL_ADC_Start_DMA+0xcc>
 8002082:	68b2      	ldr	r2, [r6, #8]
 8002084:	f422 7280 	bic.w	r2, r2, #256	; 0x100
 8002088:	60b2      	str	r2, [r6, #8]
 800208a:	e7a0      	b.n	8001fce <HAL_ADC_Start_DMA+0x26>
 800208c:	4b10      	ldr	r3, [pc, #64]	; (80020d0 <HAL_ADC_Start_DMA+0x128>)
 800208e:	429a      	cmp	r2, r3
 8002090:	d103      	bne.n	800209a <HAL_ADC_Start_DMA+0xf2>
 8002092:	6890      	ldr	r0, [r2, #8]
 8002094:	f010 5040 	ands.w	r0, r0, #805306368	; 0x30000000
 8002098:	d0da      	beq.n	8002050 <HAL_ADC_Start_DMA+0xa8>
 800209a:	4620      	mov	r0, r4
 800209c:	e7dc      	b.n	8002058 <HAL_ADC_Start_DMA+0xb0>
 800209e:	6c2b      	ldr	r3, [r5, #64]	; 0x40
 80020a0:	f043 0310 	orr.w	r3, r3, #16
 80020a4:	642b      	str	r3, [r5, #64]	; 0x40
 80020a6:	6c6b      	ldr	r3, [r5, #68]	; 0x44
 80020a8:	f043 0301 	orr.w	r3, r3, #1
 80020ac:	646b      	str	r3, [r5, #68]	; 0x44
 80020ae:	e7f4      	b.n	800209a <HAL_ADC_Start_DMA+0xf2>
 80020b0:	2002      	movs	r0, #2
 80020b2:	e7d1      	b.n	8002058 <HAL_ADC_Start_DMA+0xb0>
 80020b4:	4608      	mov	r0, r1
 80020b6:	e7cf      	b.n	8002058 <HAL_ADC_Start_DMA+0xb0>
 80020b8:	080020f9 	.word	0x080020f9
 80020bc:	080020d7 	.word	0x080020d7
 80020c0:	080020e3 	.word	0x080020e3
 80020c4:	40012300 	.word	0x40012300
 80020c8:	20000004 	.word	0x20000004
 80020cc:	000f4240 	.word	0x000f4240
 80020d0:	40012000 	.word	0x40012000

080020d4 <HAL_ADC_ConvHalfCpltCallback>:
 80020d4:	4770      	bx	lr

080020d6 <ADC_DMAHalfConvCplt>:
 80020d6:	b508      	push	{r3, lr}
 80020d8:	6b80      	ldr	r0, [r0, #56]	; 0x38
 80020da:	f7ff fffb 	bl	80020d4 <HAL_ADC_ConvHalfCpltCallback>
 80020de:	bd08      	pop	{r3, pc}

080020e0 <HAL_ADC_ErrorCallback>:
 80020e0:	4770      	bx	lr

080020e2 <ADC_DMAError>:
 80020e2:	6b80      	ldr	r0, [r0, #56]	; 0x38
 80020e4:	b508      	push	{r3, lr}
 80020e6:	2340      	movs	r3, #64	; 0x40
 80020e8:	6403      	str	r3, [r0, #64]	; 0x40
 80020ea:	6c43      	ldr	r3, [r0, #68]	; 0x44
 80020ec:	f043 0304 	orr.w	r3, r3, #4
 80020f0:	6443      	str	r3, [r0, #68]	; 0x44
 80020f2:	f7ff fff5 	bl	80020e0 <HAL_ADC_ErrorCallback>
 80020f6:	bd08      	pop	{r3, pc}

080020f8 <ADC_DMAConvCplt>:
 80020f8:	6b83      	ldr	r3, [r0, #56]	; 0x38
 80020fa:	6c1a      	ldr	r2, [r3, #64]	; 0x40
 80020fc:	f012 0f50 	tst.w	r2, #80	; 0x50
 8002100:	b510      	push	{r4, lr}
 8002102:	6c1a      	ldr	r2, [r3, #64]	; 0x40
 8002104:	d123      	bne.n	800214e <ADC_DMAConvCplt+0x56>
 8002106:	f442 7200 	orr.w	r2, r2, #512	; 0x200
 800210a:	641a      	str	r2, [r3, #64]	; 0x40
 800210c:	681a      	ldr	r2, [r3, #0]
 800210e:	6891      	ldr	r1, [r2, #8]
 8002110:	f011 5f40 	tst.w	r1, #805306368	; 0x30000000
 8002114:	d117      	bne.n	8002146 <ADC_DMAConvCplt+0x4e>
 8002116:	7e19      	ldrb	r1, [r3, #24]
 8002118:	b9a9      	cbnz	r1, 8002146 <ADC_DMAConvCplt+0x4e>
 800211a:	6ad1      	ldr	r1, [r2, #44]	; 0x2c
 800211c:	f411 0f70 	tst.w	r1, #15728640	; 0xf00000
 8002120:	d002      	beq.n	8002128 <ADC_DMAConvCplt+0x30>
 8002122:	6891      	ldr	r1, [r2, #8]
 8002124:	0548      	lsls	r0, r1, #21
 8002126:	d40e      	bmi.n	8002146 <ADC_DMAConvCplt+0x4e>
 8002128:	6851      	ldr	r1, [r2, #4]
 800212a:	f021 0120 	bic.w	r1, r1, #32
 800212e:	6051      	str	r1, [r2, #4]
 8002130:	6c1a      	ldr	r2, [r3, #64]	; 0x40
 8002132:	f422 7280 	bic.w	r2, r2, #256	; 0x100
 8002136:	641a      	str	r2, [r3, #64]	; 0x40
 8002138:	6c1a      	ldr	r2, [r3, #64]	; 0x40
 800213a:	04d1      	lsls	r1, r2, #19
 800213c:	bf5e      	ittt	pl
 800213e:	6c1a      	ldrpl	r2, [r3, #64]	; 0x40
 8002140:	f042 0201 	orrpl.w	r2, r2, #1
 8002144:	641a      	strpl	r2, [r3, #64]	; 0x40
 8002146:	4618      	mov	r0, r3
 8002148:	f7ff fc78 	bl	8001a3c <HAL_ADC_ConvCpltCallback>
 800214c:	bd10      	pop	{r4, pc}
 800214e:	06d2      	lsls	r2, r2, #27
 8002150:	d503      	bpl.n	800215a <ADC_DMAConvCplt+0x62>
 8002152:	4618      	mov	r0, r3
 8002154:	f7ff ffc4 	bl	80020e0 <HAL_ADC_ErrorCallback>
 8002158:	e7f8      	b.n	800214c <ADC_DMAConvCplt+0x54>
 800215a:	6b9b      	ldr	r3, [r3, #56]	; 0x38
 800215c:	e8bd 4010 	ldmia.w	sp!, {r4, lr}
 8002160:	6cdb      	ldr	r3, [r3, #76]	; 0x4c
 8002162:	4718      	bx	r3

08002164 <HAL_ADC_ConfigChannel>:
 8002164:	b5f7      	push	{r0, r1, r2, r4, r5, r6, r7, lr}
 8002166:	2300      	movs	r3, #0
 8002168:	9301      	str	r3, [sp, #4]
 800216a:	f890 303c 	ldrb.w	r3, [r0, #60]	; 0x3c
 800216e:	2b01      	cmp	r3, #1
 8002170:	d066      	beq.n	8002240 <HAL_ADC_ConfigChannel+0xdc>
 8002172:	2301      	movs	r3, #1
 8002174:	f880 303c 	strb.w	r3, [r0, #60]	; 0x3c
 8002178:	680d      	ldr	r5, [r1, #0]
 800217a:	6803      	ldr	r3, [r0, #0]
 800217c:	688e      	ldr	r6, [r1, #8]
 800217e:	2d09      	cmp	r5, #9
 8002180:	b2ac      	uxth	r4, r5
 8002182:	d931      	bls.n	80021e8 <HAL_ADC_ConfigChannel+0x84>
 8002184:	eb04 0244 	add.w	r2, r4, r4, lsl #1
 8002188:	68df      	ldr	r7, [r3, #12]
 800218a:	3a1e      	subs	r2, #30
 800218c:	f04f 0c07 	mov.w	ip, #7
 8002190:	fa0c fc02 	lsl.w	ip, ip, r2
 8002194:	ea27 070c 	bic.w	r7, r7, ip
 8002198:	60df      	str	r7, [r3, #12]
 800219a:	68df      	ldr	r7, [r3, #12]
 800219c:	fa06 f202 	lsl.w	r2, r6, r2
 80021a0:	433a      	orrs	r2, r7
 80021a2:	60da      	str	r2, [r3, #12]
 80021a4:	6849      	ldr	r1, [r1, #4]
 80021a6:	2906      	cmp	r1, #6
 80021a8:	eb01 0281 	add.w	r2, r1, r1, lsl #2
 80021ac:	d82c      	bhi.n	8002208 <HAL_ADC_ConfigChannel+0xa4>
 80021ae:	6b59      	ldr	r1, [r3, #52]	; 0x34
 80021b0:	3a05      	subs	r2, #5
 80021b2:	261f      	movs	r6, #31
 80021b4:	4096      	lsls	r6, r2
 80021b6:	ea21 0106 	bic.w	r1, r1, r6
 80021ba:	6359      	str	r1, [r3, #52]	; 0x34
 80021bc:	6b59      	ldr	r1, [r3, #52]	; 0x34
 80021be:	fa04 f202 	lsl.w	r2, r4, r2
 80021c2:	430a      	orrs	r2, r1
 80021c4:	635a      	str	r2, [r3, #52]	; 0x34
 80021c6:	4a2c      	ldr	r2, [pc, #176]	; (8002278 <HAL_ADC_ConfigChannel+0x114>)
 80021c8:	4293      	cmp	r3, r2
 80021ca:	d107      	bne.n	80021dc <HAL_ADC_ConfigChannel+0x78>
 80021cc:	2d12      	cmp	r5, #18
 80021ce:	d139      	bne.n	8002244 <HAL_ADC_ConfigChannel+0xe0>
 80021d0:	f8d2 3304 	ldr.w	r3, [r2, #772]	; 0x304
 80021d4:	f443 0380 	orr.w	r3, r3, #4194304	; 0x400000
 80021d8:	f8c2 3304 	str.w	r3, [r2, #772]	; 0x304
 80021dc:	2300      	movs	r3, #0
 80021de:	f880 303c 	strb.w	r3, [r0, #60]	; 0x3c
 80021e2:	4618      	mov	r0, r3
 80021e4:	b003      	add	sp, #12
 80021e6:	bdf0      	pop	{r4, r5, r6, r7, pc}
 80021e8:	691f      	ldr	r7, [r3, #16]
 80021ea:	eb05 0245 	add.w	r2, r5, r5, lsl #1
 80021ee:	f04f 0c07 	mov.w	ip, #7
 80021f2:	fa0c fc02 	lsl.w	ip, ip, r2
 80021f6:	ea27 070c 	bic.w	r7, r7, ip
 80021fa:	611f      	str	r7, [r3, #16]
 80021fc:	691f      	ldr	r7, [r3, #16]
 80021fe:	fa06 f202 	lsl.w	r2, r6, r2
 8002202:	433a      	orrs	r2, r7
 8002204:	611a      	str	r2, [r3, #16]
 8002206:	e7cd      	b.n	80021a4 <HAL_ADC_ConfigChannel+0x40>
 8002208:	290c      	cmp	r1, #12
 800220a:	f04f 011f 	mov.w	r1, #31
 800220e:	d80b      	bhi.n	8002228 <HAL_ADC_ConfigChannel+0xc4>
 8002210:	6b1e      	ldr	r6, [r3, #48]	; 0x30
 8002212:	3a23      	subs	r2, #35	; 0x23
 8002214:	4091      	lsls	r1, r2
 8002216:	ea26 0101 	bic.w	r1, r6, r1
 800221a:	6319      	str	r1, [r3, #48]	; 0x30
 800221c:	6b19      	ldr	r1, [r3, #48]	; 0x30
 800221e:	fa04 f202 	lsl.w	r2, r4, r2
 8002222:	430a      	orrs	r2, r1
 8002224:	631a      	str	r2, [r3, #48]	; 0x30
 8002226:	e7ce      	b.n	80021c6 <HAL_ADC_ConfigChannel+0x62>
 8002228:	6ade      	ldr	r6, [r3, #44]	; 0x2c
 800222a:	3a41      	subs	r2, #65	; 0x41
 800222c:	4091      	lsls	r1, r2
 800222e:	ea26 0101 	bic.w	r1, r6, r1
 8002232:	62d9      	str	r1, [r3, #44]	; 0x2c
 8002234:	6ad9      	ldr	r1, [r3, #44]	; 0x2c
 8002236:	fa04 f202 	lsl.w	r2, r4, r2
 800223a:	430a      	orrs	r2, r1
 800223c:	62da      	str	r2, [r3, #44]	; 0x2c
 800223e:	e7c2      	b.n	80021c6 <HAL_ADC_ConfigChannel+0x62>
 8002240:	2002      	movs	r0, #2
 8002242:	e7cf      	b.n	80021e4 <HAL_ADC_ConfigChannel+0x80>
 8002244:	f1a5 0310 	sub.w	r3, r5, #16
 8002248:	2b01      	cmp	r3, #1
 800224a:	d8c7      	bhi.n	80021dc <HAL_ADC_ConfigChannel+0x78>
 800224c:	4a0b      	ldr	r2, [pc, #44]	; (800227c <HAL_ADC_ConfigChannel+0x118>)
 800224e:	6853      	ldr	r3, [r2, #4]
 8002250:	2d10      	cmp	r5, #16
 8002252:	f443 0300 	orr.w	r3, r3, #8388608	; 0x800000
 8002256:	6053      	str	r3, [r2, #4]
 8002258:	d1c0      	bne.n	80021dc <HAL_ADC_ConfigChannel+0x78>
 800225a:	4b09      	ldr	r3, [pc, #36]	; (8002280 <HAL_ADC_ConfigChannel+0x11c>)
 800225c:	4a09      	ldr	r2, [pc, #36]	; (8002284 <HAL_ADC_ConfigChannel+0x120>)
 800225e:	681b      	ldr	r3, [r3, #0]
 8002260:	fbb3 f2f2 	udiv	r2, r3, r2
 8002264:	230a      	movs	r3, #10
 8002266:	4353      	muls	r3, r2
 8002268:	9301      	str	r3, [sp, #4]
 800226a:	9b01      	ldr	r3, [sp, #4]
 800226c:	2b00      	cmp	r3, #0
 800226e:	d0b5      	beq.n	80021dc <HAL_ADC_ConfigChannel+0x78>
 8002270:	9b01      	ldr	r3, [sp, #4]
 8002272:	3b01      	subs	r3, #1
 8002274:	e7f8      	b.n	8002268 <HAL_ADC_ConfigChannel+0x104>
 8002276:	bf00      	nop
 8002278:	40012000 	.word	0x40012000
 800227c:	40012300 	.word	0x40012300
 8002280:	20000004 	.word	0x20000004
 8002284:	000f4240 	.word	0x000f4240

08002288 <HAL_NVIC_SetPriorityGrouping>:
 8002288:	4907      	ldr	r1, [pc, #28]	; (80022a8 <HAL_NVIC_SetPriorityGrouping+0x20>)
 800228a:	68ca      	ldr	r2, [r1, #12]
 800228c:	f422 62e0 	bic.w	r2, r2, #1792	; 0x700
 8002290:	0203      	lsls	r3, r0, #8
 8002292:	0412      	lsls	r2, r2, #16
 8002294:	f403 63e0 	and.w	r3, r3, #1792	; 0x700
 8002298:	0c12      	lsrs	r2, r2, #16
 800229a:	4313      	orrs	r3, r2
 800229c:	f043 63bf 	orr.w	r3, r3, #100139008	; 0x5f80000
 80022a0:	f443 3300 	orr.w	r3, r3, #131072	; 0x20000
 80022a4:	60cb      	str	r3, [r1, #12]
 80022a6:	4770      	bx	lr
 80022a8:	e000ed00 	.word	0xe000ed00

080022ac <HAL_NVIC_SetPriority>:
 80022ac:	4b16      	ldr	r3, [pc, #88]	; (8002308 <HAL_NVIC_SetPriority+0x5c>)
 80022ae:	b530      	push	{r4, r5, lr}
 80022b0:	68dc      	ldr	r4, [r3, #12]
 80022b2:	f3c4 2402 	ubfx	r4, r4, #8, #3
 80022b6:	f1c4 0507 	rsb	r5, r4, #7
 80022ba:	1d23      	adds	r3, r4, #4
 80022bc:	2d04      	cmp	r5, #4
 80022be:	bf28      	it	cs
 80022c0:	2504      	movcs	r5, #4
 80022c2:	2b06      	cmp	r3, #6
 80022c4:	f04f 33ff 	mov.w	r3, #4294967295
 80022c8:	bf8c      	ite	hi
 80022ca:	3c03      	subhi	r4, #3
 80022cc:	2400      	movls	r4, #0
 80022ce:	fa03 f505 	lsl.w	r5, r3, r5
 80022d2:	ea21 0105 	bic.w	r1, r1, r5
 80022d6:	40a3      	lsls	r3, r4
 80022d8:	ea22 0203 	bic.w	r2, r2, r3
 80022dc:	40a1      	lsls	r1, r4
 80022de:	2800      	cmp	r0, #0
 80022e0:	ea41 0302 	orr.w	r3, r1, r2
 80022e4:	bfac      	ite	ge
 80022e6:	f100 4060 	addge.w	r0, r0, #3758096384	; 0xe0000000
 80022ea:	4a08      	ldrlt	r2, [pc, #32]	; (800230c <HAL_NVIC_SetPriority+0x60>)
 80022ec:	ea4f 1303 	mov.w	r3, r3, lsl #4
 80022f0:	bfb8      	it	lt
 80022f2:	f000 000f 	andlt.w	r0, r0, #15
 80022f6:	b2db      	uxtb	r3, r3
 80022f8:	bfaa      	itet	ge
 80022fa:	f500 4061 	addge.w	r0, r0, #57600	; 0xe100
 80022fe:	5413      	strblt	r3, [r2, r0]
 8002300:	f880 3300 	strbge.w	r3, [r0, #768]	; 0x300
 8002304:	bd30      	pop	{r4, r5, pc}
 8002306:	bf00      	nop
 8002308:	e000ed00 	.word	0xe000ed00
 800230c:	e000ed14 	.word	0xe000ed14

08002310 <HAL_NVIC_EnableIRQ>:
 8002310:	2800      	cmp	r0, #0
 8002312:	db08      	blt.n	8002326 <HAL_NVIC_EnableIRQ+0x16>
 8002314:	0942      	lsrs	r2, r0, #5
 8002316:	2301      	movs	r3, #1
 8002318:	f000 001f 	and.w	r0, r0, #31
 800231c:	fa03 f000 	lsl.w	r0, r3, r0
 8002320:	4b01      	ldr	r3, [pc, #4]	; (8002328 <HAL_NVIC_EnableIRQ+0x18>)
 8002322:	f843 0022 	str.w	r0, [r3, r2, lsl #2]
 8002326:	4770      	bx	lr
 8002328:	e000e100 	.word	0xe000e100

0800232c <HAL_SYSTICK_Config>:
 800232c:	3801      	subs	r0, #1
 800232e:	f1b0 7f80 	cmp.w	r0, #16777216	; 0x1000000
 8002332:	d20a      	bcs.n	800234a <HAL_SYSTICK_Config+0x1e>
 8002334:	4b06      	ldr	r3, [pc, #24]	; (8002350 <HAL_SYSTICK_Config+0x24>)
 8002336:	4a07      	ldr	r2, [pc, #28]	; (8002354 <HAL_SYSTICK_Config+0x28>)
 8002338:	6058      	str	r0, [r3, #4]
 800233a:	21f0      	movs	r1, #240	; 0xf0
 800233c:	f882 1023 	strb.w	r1, [r2, #35]	; 0x23
 8002340:	2000      	movs	r0, #0
 8002342:	2207      	movs	r2, #7
 8002344:	6098      	str	r0, [r3, #8]
 8002346:	601a      	str	r2, [r3, #0]
 8002348:	4770      	bx	lr
 800234a:	2001      	movs	r0, #1
 800234c:	4770      	bx	lr
 800234e:	bf00      	nop
 8002350:	e000e010 	.word	0xe000e010
 8002354:	e000ed00 	.word	0xe000ed00

08002358 <DMA_CalcBaseAndBitshift>:
 8002358:	6803      	ldr	r3, [r0, #0]
 800235a:	b510      	push	{r4, lr}
 800235c:	4c08      	ldr	r4, [pc, #32]	; (8002380 <DMA_CalcBaseAndBitshift+0x28>)
 800235e:	4602      	mov	r2, r0
 8002360:	b2d9      	uxtb	r1, r3
 8002362:	3910      	subs	r1, #16
 8002364:	2018      	movs	r0, #24
 8002366:	fbb1 f0f0 	udiv	r0, r1, r0
 800236a:	5c20      	ldrb	r0, [r4, r0]
 800236c:	65d0      	str	r0, [r2, #92]	; 0x5c
 800236e:	f423 707f 	bic.w	r0, r3, #1020	; 0x3fc
 8002372:	f020 0003 	bic.w	r0, r0, #3
 8002376:	295f      	cmp	r1, #95	; 0x5f
 8002378:	bf88      	it	hi
 800237a:	3004      	addhi	r0, #4
 800237c:	6590      	str	r0, [r2, #88]	; 0x58
 800237e:	bd10      	pop	{r4, pc}
 8002380:	080044f0 	.word	0x080044f0

08002384 <HAL_DMA_Init>:
 8002384:	b570      	push	{r4, r5, r6, lr}
 8002386:	4604      	mov	r4, r0
 8002388:	f7ff fd4e 	bl	8001e28 <HAL_GetTick>
 800238c:	4605      	mov	r5, r0
 800238e:	2c00      	cmp	r4, #0
 8002390:	d073      	beq.n	800247a <HAL_DMA_Init+0xf6>
 8002392:	2300      	movs	r3, #0
 8002394:	f884 3034 	strb.w	r3, [r4, #52]	; 0x34
 8002398:	6822      	ldr	r2, [r4, #0]
 800239a:	2302      	movs	r3, #2
 800239c:	f884 3035 	strb.w	r3, [r4, #53]	; 0x35
 80023a0:	6813      	ldr	r3, [r2, #0]
 80023a2:	f023 0301 	bic.w	r3, r3, #1
 80023a6:	6013      	str	r3, [r2, #0]
 80023a8:	6821      	ldr	r1, [r4, #0]
 80023aa:	680b      	ldr	r3, [r1, #0]
 80023ac:	07d8      	lsls	r0, r3, #31
 80023ae:	d42f      	bmi.n	8002410 <HAL_DMA_Init+0x8c>
 80023b0:	680b      	ldr	r3, [r1, #0]
 80023b2:	4d33      	ldr	r5, [pc, #204]	; (8002480 <HAL_DMA_Init+0xfc>)
 80023b4:	69a0      	ldr	r0, [r4, #24]
 80023b6:	401d      	ands	r5, r3
 80023b8:	e9d4 2301 	ldrd	r2, r3, [r4, #4]
 80023bc:	4313      	orrs	r3, r2
 80023be:	68e2      	ldr	r2, [r4, #12]
 80023c0:	4313      	orrs	r3, r2
 80023c2:	6922      	ldr	r2, [r4, #16]
 80023c4:	4313      	orrs	r3, r2
 80023c6:	6962      	ldr	r2, [r4, #20]
 80023c8:	4313      	orrs	r3, r2
 80023ca:	69e2      	ldr	r2, [r4, #28]
 80023cc:	4303      	orrs	r3, r0
 80023ce:	4313      	orrs	r3, r2
 80023d0:	6a22      	ldr	r2, [r4, #32]
 80023d2:	4313      	orrs	r3, r2
 80023d4:	6a62      	ldr	r2, [r4, #36]	; 0x24
 80023d6:	2a04      	cmp	r2, #4
 80023d8:	ea43 0305 	orr.w	r3, r3, r5
 80023dc:	bf02      	ittt	eq
 80023de:	e9d4 560b 	ldrdeq	r5, r6, [r4, #44]	; 0x2c
 80023e2:	4335      	orreq	r5, r6
 80023e4:	432b      	orreq	r3, r5
 80023e6:	600b      	str	r3, [r1, #0]
 80023e8:	694b      	ldr	r3, [r1, #20]
 80023ea:	2a04      	cmp	r2, #4
 80023ec:	f023 0307 	bic.w	r3, r3, #7
 80023f0:	ea43 0302 	orr.w	r3, r3, r2
 80023f4:	d133      	bne.n	800245e <HAL_DMA_Init+0xda>
 80023f6:	6aa2      	ldr	r2, [r4, #40]	; 0x28
 80023f8:	6ae5      	ldr	r5, [r4, #44]	; 0x2c
 80023fa:	4313      	orrs	r3, r2
 80023fc:	b37d      	cbz	r5, 800245e <HAL_DMA_Init+0xda>
 80023fe:	b990      	cbnz	r0, 8002426 <HAL_DMA_Init+0xa2>
 8002400:	2a01      	cmp	r2, #1
 8002402:	d021      	beq.n	8002448 <HAL_DMA_Init+0xc4>
 8002404:	f032 0202 	bics.w	r2, r2, #2
 8002408:	d129      	bne.n	800245e <HAL_DMA_Init+0xda>
 800240a:	01ea      	lsls	r2, r5, #7
 800240c:	d527      	bpl.n	800245e <HAL_DMA_Init+0xda>
 800240e:	e01e      	b.n	800244e <HAL_DMA_Init+0xca>
 8002410:	f7ff fd0a 	bl	8001e28 <HAL_GetTick>
 8002414:	1b40      	subs	r0, r0, r5
 8002416:	2805      	cmp	r0, #5
 8002418:	d9c6      	bls.n	80023a8 <HAL_DMA_Init+0x24>
 800241a:	2320      	movs	r3, #32
 800241c:	6563      	str	r3, [r4, #84]	; 0x54
 800241e:	2003      	movs	r0, #3
 8002420:	f884 0035 	strb.w	r0, [r4, #53]	; 0x35
 8002424:	bd70      	pop	{r4, r5, r6, pc}
 8002426:	f5b0 5f00 	cmp.w	r0, #8192	; 0x2000
 800242a:	d114      	bne.n	8002456 <HAL_DMA_Init+0xd2>
 800242c:	2a03      	cmp	r2, #3
 800242e:	d816      	bhi.n	800245e <HAL_DMA_Init+0xda>
 8002430:	a001      	add	r0, pc, #4	; (adr r0, 8002438 <HAL_DMA_Init+0xb4>)
 8002432:	f850 f022 	ldr.w	pc, [r0, r2, lsl #2]
 8002436:	bf00      	nop
 8002438:	0800244f 	.word	0x0800244f
 800243c:	0800240b 	.word	0x0800240b
 8002440:	0800244f 	.word	0x0800244f
 8002444:	08002449 	.word	0x08002449
 8002448:	f1b5 7fc0 	cmp.w	r5, #25165824	; 0x1800000
 800244c:	d107      	bne.n	800245e <HAL_DMA_Init+0xda>
 800244e:	2340      	movs	r3, #64	; 0x40
 8002450:	6563      	str	r3, [r4, #84]	; 0x54
 8002452:	2001      	movs	r0, #1
 8002454:	e7e4      	b.n	8002420 <HAL_DMA_Init+0x9c>
 8002456:	2a02      	cmp	r2, #2
 8002458:	d9f9      	bls.n	800244e <HAL_DMA_Init+0xca>
 800245a:	2a03      	cmp	r2, #3
 800245c:	d0d5      	beq.n	800240a <HAL_DMA_Init+0x86>
 800245e:	614b      	str	r3, [r1, #20]
 8002460:	4620      	mov	r0, r4
 8002462:	f7ff ff79 	bl	8002358 <DMA_CalcBaseAndBitshift>
 8002466:	6de2      	ldr	r2, [r4, #92]	; 0x5c
 8002468:	233f      	movs	r3, #63	; 0x3f
 800246a:	4093      	lsls	r3, r2
 800246c:	6083      	str	r3, [r0, #8]
 800246e:	2000      	movs	r0, #0
 8002470:	2301      	movs	r3, #1
 8002472:	6560      	str	r0, [r4, #84]	; 0x54
 8002474:	f884 3035 	strb.w	r3, [r4, #53]	; 0x35
 8002478:	e7d4      	b.n	8002424 <HAL_DMA_Init+0xa0>
 800247a:	2001      	movs	r0, #1
 800247c:	e7d2      	b.n	8002424 <HAL_DMA_Init+0xa0>
 800247e:	bf00      	nop
 8002480:	f010803f 	.word	0xf010803f

08002484 <HAL_DMA_Start_IT>:
 8002484:	b570      	push	{r4, r5, r6, lr}
 8002486:	f890 4034 	ldrb.w	r4, [r0, #52]	; 0x34
 800248a:	6d86      	ldr	r6, [r0, #88]	; 0x58
 800248c:	2c01      	cmp	r4, #1
 800248e:	d031      	beq.n	80024f4 <HAL_DMA_Start_IT+0x70>
 8002490:	2401      	movs	r4, #1
 8002492:	f880 4034 	strb.w	r4, [r0, #52]	; 0x34
 8002496:	f890 4035 	ldrb.w	r4, [r0, #53]	; 0x35
 800249a:	2c01      	cmp	r4, #1
 800249c:	f04f 0500 	mov.w	r5, #0
 80024a0:	f04f 0402 	mov.w	r4, #2
 80024a4:	d124      	bne.n	80024f0 <HAL_DMA_Start_IT+0x6c>
 80024a6:	f880 4035 	strb.w	r4, [r0, #53]	; 0x35
 80024aa:	6804      	ldr	r4, [r0, #0]
 80024ac:	6545      	str	r5, [r0, #84]	; 0x54
 80024ae:	6825      	ldr	r5, [r4, #0]
 80024b0:	f425 2580 	bic.w	r5, r5, #262144	; 0x40000
 80024b4:	6025      	str	r5, [r4, #0]
 80024b6:	6063      	str	r3, [r4, #4]
 80024b8:	6883      	ldr	r3, [r0, #8]
 80024ba:	2b40      	cmp	r3, #64	; 0x40
 80024bc:	bf0e      	itee	eq
 80024be:	60a2      	streq	r2, [r4, #8]
 80024c0:	60a1      	strne	r1, [r4, #8]
 80024c2:	60e2      	strne	r2, [r4, #12]
 80024c4:	6dc2      	ldr	r2, [r0, #92]	; 0x5c
 80024c6:	bf08      	it	eq
 80024c8:	60e1      	streq	r1, [r4, #12]
 80024ca:	233f      	movs	r3, #63	; 0x3f
 80024cc:	4093      	lsls	r3, r2
 80024ce:	60b3      	str	r3, [r6, #8]
 80024d0:	6823      	ldr	r3, [r4, #0]
 80024d2:	f043 0316 	orr.w	r3, r3, #22
 80024d6:	6023      	str	r3, [r4, #0]
 80024d8:	6c03      	ldr	r3, [r0, #64]	; 0x40
 80024da:	b11b      	cbz	r3, 80024e4 <HAL_DMA_Start_IT+0x60>
 80024dc:	6823      	ldr	r3, [r4, #0]
 80024de:	f043 0308 	orr.w	r3, r3, #8
 80024e2:	6023      	str	r3, [r4, #0]
 80024e4:	6823      	ldr	r3, [r4, #0]
 80024e6:	f043 0301 	orr.w	r3, r3, #1
 80024ea:	6023      	str	r3, [r4, #0]
 80024ec:	2000      	movs	r0, #0
 80024ee:	bd70      	pop	{r4, r5, r6, pc}
 80024f0:	f880 5034 	strb.w	r5, [r0, #52]	; 0x34
 80024f4:	2002      	movs	r0, #2
 80024f6:	e7fa      	b.n	80024ee <HAL_DMA_Start_IT+0x6a>

080024f8 <HAL_DMA_IRQHandler>:
 80024f8:	b5f7      	push	{r0, r1, r2, r4, r5, r6, r7, lr}
 80024fa:	2300      	movs	r3, #0
 80024fc:	9301      	str	r3, [sp, #4]
 80024fe:	4b5c      	ldr	r3, [pc, #368]	; (8002670 <HAL_DMA_IRQHandler+0x178>)
 8002500:	6d85      	ldr	r5, [r0, #88]	; 0x58
 8002502:	681f      	ldr	r7, [r3, #0]
 8002504:	6dc3      	ldr	r3, [r0, #92]	; 0x5c
 8002506:	682e      	ldr	r6, [r5, #0]
 8002508:	2208      	movs	r2, #8
 800250a:	409a      	lsls	r2, r3
 800250c:	4232      	tst	r2, r6
 800250e:	4604      	mov	r4, r0
 8002510:	d00c      	beq.n	800252c <HAL_DMA_IRQHandler+0x34>
 8002512:	6801      	ldr	r1, [r0, #0]
 8002514:	6808      	ldr	r0, [r1, #0]
 8002516:	0740      	lsls	r0, r0, #29
 8002518:	d508      	bpl.n	800252c <HAL_DMA_IRQHandler+0x34>
 800251a:	6808      	ldr	r0, [r1, #0]
 800251c:	f020 0004 	bic.w	r0, r0, #4
 8002520:	6008      	str	r0, [r1, #0]
 8002522:	60aa      	str	r2, [r5, #8]
 8002524:	6d62      	ldr	r2, [r4, #84]	; 0x54
 8002526:	f042 0201 	orr.w	r2, r2, #1
 800252a:	6562      	str	r2, [r4, #84]	; 0x54
 800252c:	2201      	movs	r2, #1
 800252e:	409a      	lsls	r2, r3
 8002530:	4232      	tst	r2, r6
 8002532:	d008      	beq.n	8002546 <HAL_DMA_IRQHandler+0x4e>
 8002534:	6821      	ldr	r1, [r4, #0]
 8002536:	6949      	ldr	r1, [r1, #20]
 8002538:	0609      	lsls	r1, r1, #24
 800253a:	bf41      	itttt	mi
 800253c:	60aa      	strmi	r2, [r5, #8]
 800253e:	6d62      	ldrmi	r2, [r4, #84]	; 0x54
 8002540:	f042 0202 	orrmi.w	r2, r2, #2
 8002544:	6562      	strmi	r2, [r4, #84]	; 0x54
 8002546:	2204      	movs	r2, #4
 8002548:	409a      	lsls	r2, r3
 800254a:	4232      	tst	r2, r6
 800254c:	d008      	beq.n	8002560 <HAL_DMA_IRQHandler+0x68>
 800254e:	6821      	ldr	r1, [r4, #0]
 8002550:	6809      	ldr	r1, [r1, #0]
 8002552:	0788      	lsls	r0, r1, #30
 8002554:	bf41      	itttt	mi
 8002556:	60aa      	strmi	r2, [r5, #8]
 8002558:	6d62      	ldrmi	r2, [r4, #84]	; 0x54
 800255a:	f042 0204 	orrmi.w	r2, r2, #4
 800255e:	6562      	strmi	r2, [r4, #84]	; 0x54
 8002560:	2210      	movs	r2, #16
 8002562:	409a      	lsls	r2, r3
 8002564:	4232      	tst	r2, r6
 8002566:	d010      	beq.n	800258a <HAL_DMA_IRQHandler+0x92>
 8002568:	6823      	ldr	r3, [r4, #0]
 800256a:	6819      	ldr	r1, [r3, #0]
 800256c:	0709      	lsls	r1, r1, #28
 800256e:	d50c      	bpl.n	800258a <HAL_DMA_IRQHandler+0x92>
 8002570:	60aa      	str	r2, [r5, #8]
 8002572:	681a      	ldr	r2, [r3, #0]
 8002574:	0350      	lsls	r0, r2, #13
 8002576:	d537      	bpl.n	80025e8 <HAL_DMA_IRQHandler+0xf0>
 8002578:	681b      	ldr	r3, [r3, #0]
 800257a:	0319      	lsls	r1, r3, #12
 800257c:	d401      	bmi.n	8002582 <HAL_DMA_IRQHandler+0x8a>
 800257e:	6c23      	ldr	r3, [r4, #64]	; 0x40
 8002580:	e000      	b.n	8002584 <HAL_DMA_IRQHandler+0x8c>
 8002582:	6ca3      	ldr	r3, [r4, #72]	; 0x48
 8002584:	b10b      	cbz	r3, 800258a <HAL_DMA_IRQHandler+0x92>
 8002586:	4620      	mov	r0, r4
 8002588:	4798      	blx	r3
 800258a:	6de1      	ldr	r1, [r4, #92]	; 0x5c
 800258c:	2220      	movs	r2, #32
 800258e:	408a      	lsls	r2, r1
 8002590:	4232      	tst	r2, r6
 8002592:	d03a      	beq.n	800260a <HAL_DMA_IRQHandler+0x112>
 8002594:	6823      	ldr	r3, [r4, #0]
 8002596:	6818      	ldr	r0, [r3, #0]
 8002598:	06c6      	lsls	r6, r0, #27
 800259a:	d536      	bpl.n	800260a <HAL_DMA_IRQHandler+0x112>
 800259c:	60aa      	str	r2, [r5, #8]
 800259e:	f894 2035 	ldrb.w	r2, [r4, #53]	; 0x35
 80025a2:	2a05      	cmp	r2, #5
 80025a4:	681a      	ldr	r2, [r3, #0]
 80025a6:	d127      	bne.n	80025f8 <HAL_DMA_IRQHandler+0x100>
 80025a8:	f022 0216 	bic.w	r2, r2, #22
 80025ac:	601a      	str	r2, [r3, #0]
 80025ae:	695a      	ldr	r2, [r3, #20]
 80025b0:	f022 0280 	bic.w	r2, r2, #128	; 0x80
 80025b4:	615a      	str	r2, [r3, #20]
 80025b6:	6c22      	ldr	r2, [r4, #64]	; 0x40
 80025b8:	b90a      	cbnz	r2, 80025be <HAL_DMA_IRQHandler+0xc6>
 80025ba:	6ca2      	ldr	r2, [r4, #72]	; 0x48
 80025bc:	b11a      	cbz	r2, 80025c6 <HAL_DMA_IRQHandler+0xce>
 80025be:	681a      	ldr	r2, [r3, #0]
 80025c0:	f022 0208 	bic.w	r2, r2, #8
 80025c4:	601a      	str	r2, [r3, #0]
 80025c6:	233f      	movs	r3, #63	; 0x3f
 80025c8:	408b      	lsls	r3, r1
 80025ca:	60ab      	str	r3, [r5, #8]
 80025cc:	2300      	movs	r3, #0
 80025ce:	f884 3034 	strb.w	r3, [r4, #52]	; 0x34
 80025d2:	2301      	movs	r3, #1
 80025d4:	f884 3035 	strb.w	r3, [r4, #53]	; 0x35
 80025d8:	6d23      	ldr	r3, [r4, #80]	; 0x50
 80025da:	2b00      	cmp	r3, #0
 80025dc:	d045      	beq.n	800266a <HAL_DMA_IRQHandler+0x172>
 80025de:	4620      	mov	r0, r4
 80025e0:	b003      	add	sp, #12
 80025e2:	e8bd 40f0 	ldmia.w	sp!, {r4, r5, r6, r7, lr}
 80025e6:	4718      	bx	r3
 80025e8:	681a      	ldr	r2, [r3, #0]
 80025ea:	05d2      	lsls	r2, r2, #23
 80025ec:	bf5e      	ittt	pl
 80025ee:	681a      	ldrpl	r2, [r3, #0]
 80025f0:	f022 0208 	bicpl.w	r2, r2, #8
 80025f4:	601a      	strpl	r2, [r3, #0]
 80025f6:	e7c2      	b.n	800257e <HAL_DMA_IRQHandler+0x86>
 80025f8:	0350      	lsls	r0, r2, #13
 80025fa:	d527      	bpl.n	800264c <HAL_DMA_IRQHandler+0x154>
 80025fc:	681b      	ldr	r3, [r3, #0]
 80025fe:	0319      	lsls	r1, r3, #12
 8002600:	d431      	bmi.n	8002666 <HAL_DMA_IRQHandler+0x16e>
 8002602:	6c63      	ldr	r3, [r4, #68]	; 0x44
 8002604:	b10b      	cbz	r3, 800260a <HAL_DMA_IRQHandler+0x112>
 8002606:	4620      	mov	r0, r4
 8002608:	4798      	blx	r3
 800260a:	6d63      	ldr	r3, [r4, #84]	; 0x54
 800260c:	b36b      	cbz	r3, 800266a <HAL_DMA_IRQHandler+0x172>
 800260e:	6d63      	ldr	r3, [r4, #84]	; 0x54
 8002610:	07da      	lsls	r2, r3, #31
 8002612:	d519      	bpl.n	8002648 <HAL_DMA_IRQHandler+0x150>
 8002614:	6822      	ldr	r2, [r4, #0]
 8002616:	f44f 5316 	mov.w	r3, #9600	; 0x2580
 800261a:	fbb7 f7f3 	udiv	r7, r7, r3
 800261e:	2305      	movs	r3, #5
 8002620:	f884 3035 	strb.w	r3, [r4, #53]	; 0x35
 8002624:	6813      	ldr	r3, [r2, #0]
 8002626:	f023 0301 	bic.w	r3, r3, #1
 800262a:	6013      	str	r3, [r2, #0]
 800262c:	9b01      	ldr	r3, [sp, #4]
 800262e:	3301      	adds	r3, #1
 8002630:	42bb      	cmp	r3, r7
 8002632:	9301      	str	r3, [sp, #4]
 8002634:	d802      	bhi.n	800263c <HAL_DMA_IRQHandler+0x144>
 8002636:	6813      	ldr	r3, [r2, #0]
 8002638:	07db      	lsls	r3, r3, #31
 800263a:	d4f7      	bmi.n	800262c <HAL_DMA_IRQHandler+0x134>
 800263c:	2300      	movs	r3, #0
 800263e:	f884 3034 	strb.w	r3, [r4, #52]	; 0x34
 8002642:	2301      	movs	r3, #1
 8002644:	f884 3035 	strb.w	r3, [r4, #53]	; 0x35
 8002648:	6ce3      	ldr	r3, [r4, #76]	; 0x4c
 800264a:	e7c6      	b.n	80025da <HAL_DMA_IRQHandler+0xe2>
 800264c:	681a      	ldr	r2, [r3, #0]
 800264e:	f412 7280 	ands.w	r2, r2, #256	; 0x100
 8002652:	d108      	bne.n	8002666 <HAL_DMA_IRQHandler+0x16e>
 8002654:	6819      	ldr	r1, [r3, #0]
 8002656:	f021 0110 	bic.w	r1, r1, #16
 800265a:	6019      	str	r1, [r3, #0]
 800265c:	2301      	movs	r3, #1
 800265e:	f884 2034 	strb.w	r2, [r4, #52]	; 0x34
 8002662:	f884 3035 	strb.w	r3, [r4, #53]	; 0x35
 8002666:	6be3      	ldr	r3, [r4, #60]	; 0x3c
 8002668:	e7cc      	b.n	8002604 <HAL_DMA_IRQHandler+0x10c>
 800266a:	b003      	add	sp, #12
 800266c:	bdf0      	pop	{r4, r5, r6, r7, pc}
 800266e:	bf00      	nop
 8002670:	20000004 	.word	0x20000004

08002674 <HAL_GPIO_Init>:
 8002674:	e92d 4ff7 	stmdb	sp!, {r0, r1, r2, r4, r5, r6, r7, r8, r9, sl, fp, lr}
 8002678:	f8df 9184 	ldr.w	r9, [pc, #388]	; 8002800 <HAL_GPIO_Init+0x18c>
 800267c:	4a5e      	ldr	r2, [pc, #376]	; (80027f8 <HAL_GPIO_Init+0x184>)
 800267e:	2300      	movs	r3, #0
 8002680:	680d      	ldr	r5, [r1, #0]
 8002682:	2401      	movs	r4, #1
 8002684:	409c      	lsls	r4, r3
 8002686:	ea04 0c05 	and.w	ip, r4, r5
 800268a:	43ac      	bics	r4, r5
 800268c:	f040 80a4 	bne.w	80027d8 <HAL_GPIO_Init+0x164>
 8002690:	684d      	ldr	r5, [r1, #4]
 8002692:	f005 0403 	and.w	r4, r5, #3
 8002696:	ea4f 0843 	mov.w	r8, r3, lsl #1
 800269a:	2603      	movs	r6, #3
 800269c:	1e67      	subs	r7, r4, #1
 800269e:	fa06 f608 	lsl.w	r6, r6, r8
 80026a2:	2f01      	cmp	r7, #1
 80026a4:	ea6f 0606 	mvn.w	r6, r6
 80026a8:	d834      	bhi.n	8002714 <HAL_GPIO_Init+0xa0>
 80026aa:	6887      	ldr	r7, [r0, #8]
 80026ac:	ea07 0e06 	and.w	lr, r7, r6
 80026b0:	68cf      	ldr	r7, [r1, #12]
 80026b2:	fa07 f708 	lsl.w	r7, r7, r8
 80026b6:	ea47 070e 	orr.w	r7, r7, lr
 80026ba:	6087      	str	r7, [r0, #8]
 80026bc:	6847      	ldr	r7, [r0, #4]
 80026be:	ea27 0e0c 	bic.w	lr, r7, ip
 80026c2:	f3c5 1700 	ubfx	r7, r5, #4, #1
 80026c6:	409f      	lsls	r7, r3
 80026c8:	ea47 070e 	orr.w	r7, r7, lr
 80026cc:	6047      	str	r7, [r0, #4]
 80026ce:	68c7      	ldr	r7, [r0, #12]
 80026d0:	ea07 0e06 	and.w	lr, r7, r6
 80026d4:	688f      	ldr	r7, [r1, #8]
 80026d6:	fa07 f708 	lsl.w	r7, r7, r8
 80026da:	ea47 070e 	orr.w	r7, r7, lr
 80026de:	2c02      	cmp	r4, #2
 80026e0:	60c7      	str	r7, [r0, #12]
 80026e2:	d119      	bne.n	8002718 <HAL_GPIO_Init+0xa4>
 80026e4:	ea4f 0ad3 	mov.w	sl, r3, lsr #3
 80026e8:	eb00 0a8a 	add.w	sl, r0, sl, lsl #2
 80026ec:	f003 0b07 	and.w	fp, r3, #7
 80026f0:	f8da 7020 	ldr.w	r7, [sl, #32]
 80026f4:	ea4f 0b8b 	mov.w	fp, fp, lsl #2
 80026f8:	f04f 0e0f 	mov.w	lr, #15
 80026fc:	fa0e fe0b 	lsl.w	lr, lr, fp
 8002700:	ea27 0e0e 	bic.w	lr, r7, lr
 8002704:	690f      	ldr	r7, [r1, #16]
 8002706:	fa07 f70b 	lsl.w	r7, r7, fp
 800270a:	ea47 070e 	orr.w	r7, r7, lr
 800270e:	f8ca 7020 	str.w	r7, [sl, #32]
 8002712:	e001      	b.n	8002718 <HAL_GPIO_Init+0xa4>
 8002714:	2c03      	cmp	r4, #3
 8002716:	d1da      	bne.n	80026ce <HAL_GPIO_Init+0x5a>
 8002718:	6807      	ldr	r7, [r0, #0]
 800271a:	fa04 f408 	lsl.w	r4, r4, r8
 800271e:	403e      	ands	r6, r7
 8002720:	4326      	orrs	r6, r4
 8002722:	00ec      	lsls	r4, r5, #3
 8002724:	6006      	str	r6, [r0, #0]
 8002726:	d557      	bpl.n	80027d8 <HAL_GPIO_Init+0x164>
 8002728:	f04f 0a00 	mov.w	sl, #0
 800272c:	f8cd a004 	str.w	sl, [sp, #4]
 8002730:	f8d9 6044 	ldr.w	r6, [r9, #68]	; 0x44
 8002734:	4c31      	ldr	r4, [pc, #196]	; (80027fc <HAL_GPIO_Init+0x188>)
 8002736:	f446 4680 	orr.w	r6, r6, #16384	; 0x4000
 800273a:	f8c9 6044 	str.w	r6, [r9, #68]	; 0x44
 800273e:	f8d9 6044 	ldr.w	r6, [r9, #68]	; 0x44
 8002742:	f406 4680 	and.w	r6, r6, #16384	; 0x4000
 8002746:	9601      	str	r6, [sp, #4]
 8002748:	9e01      	ldr	r6, [sp, #4]
 800274a:	f023 0603 	bic.w	r6, r3, #3
 800274e:	f106 4680 	add.w	r6, r6, #1073741824	; 0x40000000
 8002752:	f506 369c 	add.w	r6, r6, #79872	; 0x13800
 8002756:	f003 0e03 	and.w	lr, r3, #3
 800275a:	f8d6 8008 	ldr.w	r8, [r6, #8]
 800275e:	ea4f 0e8e 	mov.w	lr, lr, lsl #2
 8002762:	270f      	movs	r7, #15
 8002764:	fa07 f70e 	lsl.w	r7, r7, lr
 8002768:	42a0      	cmp	r0, r4
 800276a:	ea28 0707 	bic.w	r7, r8, r7
 800276e:	d03a      	beq.n	80027e6 <HAL_GPIO_Init+0x172>
 8002770:	f504 6480 	add.w	r4, r4, #1024	; 0x400
 8002774:	42a0      	cmp	r0, r4
 8002776:	d038      	beq.n	80027ea <HAL_GPIO_Init+0x176>
 8002778:	f504 6480 	add.w	r4, r4, #1024	; 0x400
 800277c:	42a0      	cmp	r0, r4
 800277e:	d036      	beq.n	80027ee <HAL_GPIO_Init+0x17a>
 8002780:	f504 6480 	add.w	r4, r4, #1024	; 0x400
 8002784:	42a0      	cmp	r0, r4
 8002786:	d034      	beq.n	80027f2 <HAL_GPIO_Init+0x17e>
 8002788:	f504 6480 	add.w	r4, r4, #1024	; 0x400
 800278c:	42a0      	cmp	r0, r4
 800278e:	bf0c      	ite	eq
 8002790:	2404      	moveq	r4, #4
 8002792:	2407      	movne	r4, #7
 8002794:	fa04 f40e 	lsl.w	r4, r4, lr
 8002798:	433c      	orrs	r4, r7
 800279a:	60b4      	str	r4, [r6, #8]
 800279c:	6814      	ldr	r4, [r2, #0]
 800279e:	ea6f 060c 	mvn.w	r6, ip
 80027a2:	03ef      	lsls	r7, r5, #15
 80027a4:	bf54      	ite	pl
 80027a6:	4034      	andpl	r4, r6
 80027a8:	ea4c 0404 	orrmi.w	r4, ip, r4
 80027ac:	6014      	str	r4, [r2, #0]
 80027ae:	6854      	ldr	r4, [r2, #4]
 80027b0:	03af      	lsls	r7, r5, #14
 80027b2:	bf54      	ite	pl
 80027b4:	4034      	andpl	r4, r6
 80027b6:	ea4c 0404 	orrmi.w	r4, ip, r4
 80027ba:	6054      	str	r4, [r2, #4]
 80027bc:	6894      	ldr	r4, [r2, #8]
 80027be:	02ef      	lsls	r7, r5, #11
 80027c0:	bf54      	ite	pl
 80027c2:	4034      	andpl	r4, r6
 80027c4:	ea4c 0404 	orrmi.w	r4, ip, r4
 80027c8:	6094      	str	r4, [r2, #8]
 80027ca:	68d4      	ldr	r4, [r2, #12]
 80027cc:	02ad      	lsls	r5, r5, #10
 80027ce:	bf54      	ite	pl
 80027d0:	4034      	andpl	r4, r6
 80027d2:	ea4c 0404 	orrmi.w	r4, ip, r4
 80027d6:	60d4      	str	r4, [r2, #12]
 80027d8:	3301      	adds	r3, #1
 80027da:	2b10      	cmp	r3, #16
 80027dc:	f47f af50 	bne.w	8002680 <HAL_GPIO_Init+0xc>
 80027e0:	b003      	add	sp, #12
 80027e2:	e8bd 8ff0 	ldmia.w	sp!, {r4, r5, r6, r7, r8, r9, sl, fp, pc}
 80027e6:	4654      	mov	r4, sl
 80027e8:	e7d4      	b.n	8002794 <HAL_GPIO_Init+0x120>
 80027ea:	2401      	movs	r4, #1
 80027ec:	e7d2      	b.n	8002794 <HAL_GPIO_Init+0x120>
 80027ee:	2402      	movs	r4, #2
 80027f0:	e7d0      	b.n	8002794 <HAL_GPIO_Init+0x120>
 80027f2:	2403      	movs	r4, #3
 80027f4:	e7ce      	b.n	8002794 <HAL_GPIO_Init+0x120>
 80027f6:	bf00      	nop
 80027f8:	40013c00 	.word	0x40013c00
 80027fc:	40020000 	.word	0x40020000
 8002800:	40023800 	.word	0x40023800

08002804 <HAL_GPIO_WritePin>:
 8002804:	b10a      	cbz	r2, 800280a <HAL_GPIO_WritePin+0x6>
 8002806:	6181      	str	r1, [r0, #24]
 8002808:	4770      	bx	lr
 800280a:	0409      	lsls	r1, r1, #16
 800280c:	e7fb      	b.n	8002806 <HAL_GPIO_WritePin+0x2>

0800280e <I2C_IsAcknowledgeFailed>:
 800280e:	6801      	ldr	r1, [r0, #0]
 8002810:	694b      	ldr	r3, [r1, #20]
 8002812:	f413 6380 	ands.w	r3, r3, #1024	; 0x400
 8002816:	f04f 0200 	mov.w	r2, #0
 800281a:	d010      	beq.n	800283e <I2C_IsAcknowledgeFailed+0x30>
 800281c:	f46f 6380 	mvn.w	r3, #1024	; 0x400
 8002820:	614b      	str	r3, [r1, #20]
 8002822:	2320      	movs	r3, #32
 8002824:	6302      	str	r2, [r0, #48]	; 0x30
 8002826:	f880 303d 	strb.w	r3, [r0, #61]	; 0x3d
 800282a:	f880 203e 	strb.w	r2, [r0, #62]	; 0x3e
 800282e:	6c03      	ldr	r3, [r0, #64]	; 0x40
 8002830:	f880 203c 	strb.w	r2, [r0, #60]	; 0x3c
 8002834:	f043 0304 	orr.w	r3, r3, #4
 8002838:	6403      	str	r3, [r0, #64]	; 0x40
 800283a:	2001      	movs	r0, #1
 800283c:	4770      	bx	lr
 800283e:	4618      	mov	r0, r3
 8002840:	4770      	bx	lr

08002842 <I2C_WaitOnMasterAddressFlagUntilTimeout>:
 8002842:	e92d 41f0 	stmdb	sp!, {r4, r5, r6, r7, r8, lr}
 8002846:	4604      	mov	r4, r0
 8002848:	460f      	mov	r7, r1
 800284a:	4616      	mov	r6, r2
 800284c:	4698      	mov	r8, r3
 800284e:	6825      	ldr	r5, [r4, #0]
 8002850:	6968      	ldr	r0, [r5, #20]
 8002852:	ea27 0000 	bic.w	r0, r7, r0
 8002856:	b280      	uxth	r0, r0
 8002858:	b1b8      	cbz	r0, 800288a <I2C_WaitOnMasterAddressFlagUntilTimeout+0x48>
 800285a:	696b      	ldr	r3, [r5, #20]
 800285c:	055a      	lsls	r2, r3, #21
 800285e:	d516      	bpl.n	800288e <I2C_WaitOnMasterAddressFlagUntilTimeout+0x4c>
 8002860:	682b      	ldr	r3, [r5, #0]
 8002862:	f443 7300 	orr.w	r3, r3, #512	; 0x200
 8002866:	602b      	str	r3, [r5, #0]
 8002868:	f46f 6380 	mvn.w	r3, #1024	; 0x400
 800286c:	616b      	str	r3, [r5, #20]
 800286e:	2220      	movs	r2, #32
 8002870:	2300      	movs	r3, #0
 8002872:	6323      	str	r3, [r4, #48]	; 0x30
 8002874:	f884 203d 	strb.w	r2, [r4, #61]	; 0x3d
 8002878:	f884 303e 	strb.w	r3, [r4, #62]	; 0x3e
 800287c:	6c22      	ldr	r2, [r4, #64]	; 0x40
 800287e:	f042 0204 	orr.w	r2, r2, #4
 8002882:	6422      	str	r2, [r4, #64]	; 0x40
 8002884:	f884 303c 	strb.w	r3, [r4, #60]	; 0x3c
 8002888:	2001      	movs	r0, #1
 800288a:	e8bd 81f0 	ldmia.w	sp!, {r4, r5, r6, r7, r8, pc}
 800288e:	1c73      	adds	r3, r6, #1
 8002890:	d0de      	beq.n	8002850 <I2C_WaitOnMasterAddressFlagUntilTimeout+0xe>
 8002892:	f7ff fac9 	bl	8001e28 <HAL_GetTick>
 8002896:	eba0 0008 	sub.w	r0, r0, r8
 800289a:	42b0      	cmp	r0, r6
 800289c:	d801      	bhi.n	80028a2 <I2C_WaitOnMasterAddressFlagUntilTimeout+0x60>
 800289e:	2e00      	cmp	r6, #0
 80028a0:	d1d5      	bne.n	800284e <I2C_WaitOnMasterAddressFlagUntilTimeout+0xc>
 80028a2:	2300      	movs	r3, #0
 80028a4:	2220      	movs	r2, #32
 80028a6:	6323      	str	r3, [r4, #48]	; 0x30
 80028a8:	f884 203d 	strb.w	r2, [r4, #61]	; 0x3d
 80028ac:	f884 303e 	strb.w	r3, [r4, #62]	; 0x3e
 80028b0:	6c22      	ldr	r2, [r4, #64]	; 0x40
 80028b2:	f042 0220 	orr.w	r2, r2, #32
 80028b6:	e7e4      	b.n	8002882 <I2C_WaitOnMasterAddressFlagUntilTimeout+0x40>

080028b8 <I2C_WaitOnBTFFlagUntilTimeout>:
 80028b8:	b570      	push	{r4, r5, r6, lr}
 80028ba:	4604      	mov	r4, r0
 80028bc:	460d      	mov	r5, r1
 80028be:	4616      	mov	r6, r2
 80028c0:	6823      	ldr	r3, [r4, #0]
 80028c2:	695b      	ldr	r3, [r3, #20]
 80028c4:	075b      	lsls	r3, r3, #29
 80028c6:	d501      	bpl.n	80028cc <I2C_WaitOnBTFFlagUntilTimeout+0x14>
 80028c8:	2000      	movs	r0, #0
 80028ca:	bd70      	pop	{r4, r5, r6, pc}
 80028cc:	4620      	mov	r0, r4
 80028ce:	f7ff ff9e 	bl	800280e <I2C_IsAcknowledgeFailed>
 80028d2:	b9a8      	cbnz	r0, 8002900 <I2C_WaitOnBTFFlagUntilTimeout+0x48>
 80028d4:	1c6a      	adds	r2, r5, #1
 80028d6:	d0f3      	beq.n	80028c0 <I2C_WaitOnBTFFlagUntilTimeout+0x8>
 80028d8:	f7ff faa6 	bl	8001e28 <HAL_GetTick>
 80028dc:	1b80      	subs	r0, r0, r6
 80028de:	42a8      	cmp	r0, r5
 80028e0:	d801      	bhi.n	80028e6 <I2C_WaitOnBTFFlagUntilTimeout+0x2e>
 80028e2:	2d00      	cmp	r5, #0
 80028e4:	d1ec      	bne.n	80028c0 <I2C_WaitOnBTFFlagUntilTimeout+0x8>
 80028e6:	2300      	movs	r3, #0
 80028e8:	2220      	movs	r2, #32
 80028ea:	6323      	str	r3, [r4, #48]	; 0x30
 80028ec:	f884 203d 	strb.w	r2, [r4, #61]	; 0x3d
 80028f0:	f884 303e 	strb.w	r3, [r4, #62]	; 0x3e
 80028f4:	6c22      	ldr	r2, [r4, #64]	; 0x40
 80028f6:	f884 303c 	strb.w	r3, [r4, #60]	; 0x3c
 80028fa:	f042 0220 	orr.w	r2, r2, #32
 80028fe:	6422      	str	r2, [r4, #64]	; 0x40
 8002900:	2001      	movs	r0, #1
 8002902:	e7e2      	b.n	80028ca <I2C_WaitOnBTFFlagUntilTimeout+0x12>

08002904 <I2C_WaitOnRXNEFlagUntilTimeout>:
 8002904:	b570      	push	{r4, r5, r6, lr}
 8002906:	4604      	mov	r4, r0
 8002908:	460d      	mov	r5, r1
 800290a:	4616      	mov	r6, r2
 800290c:	6821      	ldr	r1, [r4, #0]
 800290e:	694b      	ldr	r3, [r1, #20]
 8002910:	f013 0340 	ands.w	r3, r3, #64	; 0x40
 8002914:	d001      	beq.n	800291a <I2C_WaitOnRXNEFlagUntilTimeout+0x16>
 8002916:	2000      	movs	r0, #0
 8002918:	e010      	b.n	800293c <I2C_WaitOnRXNEFlagUntilTimeout+0x38>
 800291a:	694a      	ldr	r2, [r1, #20]
 800291c:	06d2      	lsls	r2, r2, #27
 800291e:	d50e      	bpl.n	800293e <I2C_WaitOnRXNEFlagUntilTimeout+0x3a>
 8002920:	f06f 0210 	mvn.w	r2, #16
 8002924:	614a      	str	r2, [r1, #20]
 8002926:	2220      	movs	r2, #32
 8002928:	6323      	str	r3, [r4, #48]	; 0x30
 800292a:	f884 203d 	strb.w	r2, [r4, #61]	; 0x3d
 800292e:	f884 303e 	strb.w	r3, [r4, #62]	; 0x3e
 8002932:	6c22      	ldr	r2, [r4, #64]	; 0x40
 8002934:	6422      	str	r2, [r4, #64]	; 0x40
 8002936:	f884 303c 	strb.w	r3, [r4, #60]	; 0x3c
 800293a:	2001      	movs	r0, #1
 800293c:	bd70      	pop	{r4, r5, r6, pc}
 800293e:	f7ff fa73 	bl	8001e28 <HAL_GetTick>
 8002942:	1b80      	subs	r0, r0, r6
 8002944:	42a8      	cmp	r0, r5
 8002946:	d801      	bhi.n	800294c <I2C_WaitOnRXNEFlagUntilTimeout+0x48>
 8002948:	2d00      	cmp	r5, #0
 800294a:	d1df      	bne.n	800290c <I2C_WaitOnRXNEFlagUntilTimeout+0x8>
 800294c:	2300      	movs	r3, #0
 800294e:	2220      	movs	r2, #32
 8002950:	6323      	str	r3, [r4, #48]	; 0x30
 8002952:	f884 203d 	strb.w	r2, [r4, #61]	; 0x3d
 8002956:	f884 303e 	strb.w	r3, [r4, #62]	; 0x3e
 800295a:	6c22      	ldr	r2, [r4, #64]	; 0x40
 800295c:	f042 0220 	orr.w	r2, r2, #32
 8002960:	e7e8      	b.n	8002934 <I2C_WaitOnRXNEFlagUntilTimeout+0x30>

08002962 <I2C_WaitOnFlagUntilTimeout>:
 8002962:	e92d 46f8 	stmdb	sp!, {r3, r4, r5, r6, r7, r9, sl, lr}
 8002966:	4606      	mov	r6, r0
 8002968:	460f      	mov	r7, r1
 800296a:	4691      	mov	r9, r2
 800296c:	461d      	mov	r5, r3
 800296e:	ea4f 4a11 	mov.w	sl, r1, lsr #16
 8002972:	6833      	ldr	r3, [r6, #0]
 8002974:	f1ba 0f01 	cmp.w	sl, #1
 8002978:	bf0c      	ite	eq
 800297a:	695c      	ldreq	r4, [r3, #20]
 800297c:	699c      	ldrne	r4, [r3, #24]
 800297e:	ea27 0404 	bic.w	r4, r7, r4
 8002982:	b2a4      	uxth	r4, r4
 8002984:	fab4 f484 	clz	r4, r4
 8002988:	0964      	lsrs	r4, r4, #5
 800298a:	45a1      	cmp	r9, r4
 800298c:	d001      	beq.n	8002992 <I2C_WaitOnFlagUntilTimeout+0x30>
 800298e:	2000      	movs	r0, #0
 8002990:	e017      	b.n	80029c2 <I2C_WaitOnFlagUntilTimeout+0x60>
 8002992:	1c6a      	adds	r2, r5, #1
 8002994:	d0ee      	beq.n	8002974 <I2C_WaitOnFlagUntilTimeout+0x12>
 8002996:	f7ff fa47 	bl	8001e28 <HAL_GetTick>
 800299a:	9b08      	ldr	r3, [sp, #32]
 800299c:	1ac0      	subs	r0, r0, r3
 800299e:	42a8      	cmp	r0, r5
 80029a0:	d801      	bhi.n	80029a6 <I2C_WaitOnFlagUntilTimeout+0x44>
 80029a2:	2d00      	cmp	r5, #0
 80029a4:	d1e5      	bne.n	8002972 <I2C_WaitOnFlagUntilTimeout+0x10>
 80029a6:	2300      	movs	r3, #0
 80029a8:	2220      	movs	r2, #32
 80029aa:	6333      	str	r3, [r6, #48]	; 0x30
 80029ac:	f886 203d 	strb.w	r2, [r6, #61]	; 0x3d
 80029b0:	f886 303e 	strb.w	r3, [r6, #62]	; 0x3e
 80029b4:	6c32      	ldr	r2, [r6, #64]	; 0x40
 80029b6:	f886 303c 	strb.w	r3, [r6, #60]	; 0x3c
 80029ba:	f042 0220 	orr.w	r2, r2, #32
 80029be:	6432      	str	r2, [r6, #64]	; 0x40
 80029c0:	2001      	movs	r0, #1
 80029c2:	e8bd 86f8 	ldmia.w	sp!, {r3, r4, r5, r6, r7, r9, sl, pc}

080029c6 <I2C_WaitOnTXEFlagUntilTimeout>:
 80029c6:	b570      	push	{r4, r5, r6, lr}
 80029c8:	4604      	mov	r4, r0
 80029ca:	460d      	mov	r5, r1
 80029cc:	4616      	mov	r6, r2
 80029ce:	6823      	ldr	r3, [r4, #0]
 80029d0:	695b      	ldr	r3, [r3, #20]
 80029d2:	061b      	lsls	r3, r3, #24
 80029d4:	d501      	bpl.n	80029da <I2C_WaitOnTXEFlagUntilTimeout+0x14>
 80029d6:	2000      	movs	r0, #0
 80029d8:	bd70      	pop	{r4, r5, r6, pc}
 80029da:	4620      	mov	r0, r4
 80029dc:	f7ff ff17 	bl	800280e <I2C_IsAcknowledgeFailed>
 80029e0:	b9a8      	cbnz	r0, 8002a0e <I2C_WaitOnTXEFlagUntilTimeout+0x48>
 80029e2:	1c6a      	adds	r2, r5, #1
 80029e4:	d0f3      	beq.n	80029ce <I2C_WaitOnTXEFlagUntilTimeout+0x8>
 80029e6:	f7ff fa1f 	bl	8001e28 <HAL_GetTick>
 80029ea:	1b80      	subs	r0, r0, r6
 80029ec:	42a8      	cmp	r0, r5
 80029ee:	d801      	bhi.n	80029f4 <I2C_WaitOnTXEFlagUntilTimeout+0x2e>
 80029f0:	2d00      	cmp	r5, #0
 80029f2:	d1ec      	bne.n	80029ce <I2C_WaitOnTXEFlagUntilTimeout+0x8>
 80029f4:	2300      	movs	r3, #0
 80029f6:	2220      	movs	r2, #32
 80029f8:	6323      	str	r3, [r4, #48]	; 0x30
 80029fa:	f884 203d 	strb.w	r2, [r4, #61]	; 0x3d
 80029fe:	f884 303e 	strb.w	r3, [r4, #62]	; 0x3e
 8002a02:	6c22      	ldr	r2, [r4, #64]	; 0x40
 8002a04:	f884 303c 	strb.w	r3, [r4, #60]	; 0x3c
 8002a08:	f042 0220 	orr.w	r2, r2, #32
 8002a0c:	6422      	str	r2, [r4, #64]	; 0x40
 8002a0e:	2001      	movs	r0, #1
 8002a10:	e7e2      	b.n	80029d8 <I2C_WaitOnTXEFlagUntilTimeout+0x12>
	...

08002a14 <I2C_RequestMemoryWrite>:
 8002a14:	e92d 43f0 	stmdb	sp!, {r4, r5, r6, r7, r8, r9, lr}
 8002a18:	4615      	mov	r5, r2
 8002a1a:	6802      	ldr	r2, [r0, #0]
 8002a1c:	b085      	sub	sp, #20
 8002a1e:	e9dd 780c 	ldrd	r7, r8, [sp, #48]	; 0x30
 8002a22:	4699      	mov	r9, r3
 8002a24:	6813      	ldr	r3, [r2, #0]
 8002a26:	f443 7380 	orr.w	r3, r3, #256	; 0x100
 8002a2a:	6013      	str	r3, [r2, #0]
 8002a2c:	460e      	mov	r6, r1
 8002a2e:	463b      	mov	r3, r7
 8002a30:	f8cd 8000 	str.w	r8, [sp]
 8002a34:	2200      	movs	r2, #0
 8002a36:	f04f 1101 	mov.w	r1, #65537	; 0x10001
 8002a3a:	4604      	mov	r4, r0
 8002a3c:	f7ff ff91 	bl	8002962 <I2C_WaitOnFlagUntilTimeout>
 8002a40:	6823      	ldr	r3, [r4, #0]
 8002a42:	b138      	cbz	r0, 8002a54 <I2C_RequestMemoryWrite+0x40>
 8002a44:	681b      	ldr	r3, [r3, #0]
 8002a46:	05db      	lsls	r3, r3, #23
 8002a48:	d502      	bpl.n	8002a50 <I2C_RequestMemoryWrite+0x3c>
 8002a4a:	f44f 7300 	mov.w	r3, #512	; 0x200
 8002a4e:	6423      	str	r3, [r4, #64]	; 0x40
 8002a50:	2003      	movs	r0, #3
 8002a52:	e00a      	b.n	8002a6a <I2C_RequestMemoryWrite+0x56>
 8002a54:	f006 06fe 	and.w	r6, r6, #254	; 0xfe
 8002a58:	611e      	str	r6, [r3, #16]
 8002a5a:	4919      	ldr	r1, [pc, #100]	; (8002ac0 <I2C_RequestMemoryWrite+0xac>)
 8002a5c:	4643      	mov	r3, r8
 8002a5e:	463a      	mov	r2, r7
 8002a60:	4620      	mov	r0, r4
 8002a62:	f7ff feee 	bl	8002842 <I2C_WaitOnMasterAddressFlagUntilTimeout>
 8002a66:	b118      	cbz	r0, 8002a70 <I2C_RequestMemoryWrite+0x5c>
 8002a68:	2001      	movs	r0, #1
 8002a6a:	b005      	add	sp, #20
 8002a6c:	e8bd 83f0 	ldmia.w	sp!, {r4, r5, r6, r7, r8, r9, pc}
 8002a70:	6823      	ldr	r3, [r4, #0]
 8002a72:	9003      	str	r0, [sp, #12]
 8002a74:	695a      	ldr	r2, [r3, #20]
 8002a76:	9203      	str	r2, [sp, #12]
 8002a78:	699b      	ldr	r3, [r3, #24]
 8002a7a:	9303      	str	r3, [sp, #12]
 8002a7c:	4642      	mov	r2, r8
 8002a7e:	4639      	mov	r1, r7
 8002a80:	4620      	mov	r0, r4
 8002a82:	9b03      	ldr	r3, [sp, #12]
 8002a84:	f7ff ff9f 	bl	80029c6 <I2C_WaitOnTXEFlagUntilTimeout>
 8002a88:	b140      	cbz	r0, 8002a9c <I2C_RequestMemoryWrite+0x88>
 8002a8a:	6c23      	ldr	r3, [r4, #64]	; 0x40
 8002a8c:	2b04      	cmp	r3, #4
 8002a8e:	bf01      	itttt	eq
 8002a90:	6822      	ldreq	r2, [r4, #0]
 8002a92:	6813      	ldreq	r3, [r2, #0]
 8002a94:	f443 7300 	orreq.w	r3, r3, #512	; 0x200
 8002a98:	6013      	streq	r3, [r2, #0]
 8002a9a:	e7e5      	b.n	8002a68 <I2C_RequestMemoryWrite+0x54>
 8002a9c:	f1b9 0f01 	cmp.w	r9, #1
 8002aa0:	6823      	ldr	r3, [r4, #0]
 8002aa2:	d102      	bne.n	8002aaa <I2C_RequestMemoryWrite+0x96>
 8002aa4:	b2ed      	uxtb	r5, r5
 8002aa6:	611d      	str	r5, [r3, #16]
 8002aa8:	e7df      	b.n	8002a6a <I2C_RequestMemoryWrite+0x56>
 8002aaa:	0a2a      	lsrs	r2, r5, #8
 8002aac:	611a      	str	r2, [r3, #16]
 8002aae:	4639      	mov	r1, r7
 8002ab0:	4642      	mov	r2, r8
 8002ab2:	4620      	mov	r0, r4
 8002ab4:	f7ff ff87 	bl	80029c6 <I2C_WaitOnTXEFlagUntilTimeout>
 8002ab8:	2800      	cmp	r0, #0
 8002aba:	d1e6      	bne.n	8002a8a <I2C_RequestMemoryWrite+0x76>
 8002abc:	6823      	ldr	r3, [r4, #0]
 8002abe:	e7f1      	b.n	8002aa4 <I2C_RequestMemoryWrite+0x90>
 8002ac0:	00010002 	.word	0x00010002

08002ac4 <I2C_RequestMemoryRead>:
 8002ac4:	e92d 47ff 	stmdb	sp!, {r0, r1, r2, r3, r4, r5, r6, r7, r8, r9, sl, lr}
 8002ac8:	469a      	mov	sl, r3
 8002aca:	6803      	ldr	r3, [r0, #0]
 8002acc:	4615      	mov	r5, r2
 8002ace:	681a      	ldr	r2, [r3, #0]
 8002ad0:	f442 6280 	orr.w	r2, r2, #1024	; 0x400
 8002ad4:	601a      	str	r2, [r3, #0]
 8002ad6:	681a      	ldr	r2, [r3, #0]
 8002ad8:	e9dd 780c 	ldrd	r7, r8, [sp, #48]	; 0x30
 8002adc:	f442 7280 	orr.w	r2, r2, #256	; 0x100
 8002ae0:	601a      	str	r2, [r3, #0]
 8002ae2:	460e      	mov	r6, r1
 8002ae4:	463b      	mov	r3, r7
 8002ae6:	f8cd 8000 	str.w	r8, [sp]
 8002aea:	2200      	movs	r2, #0
 8002aec:	f04f 1101 	mov.w	r1, #65537	; 0x10001
 8002af0:	4604      	mov	r4, r0
 8002af2:	f7ff ff36 	bl	8002962 <I2C_WaitOnFlagUntilTimeout>
 8002af6:	6823      	ldr	r3, [r4, #0]
 8002af8:	b148      	cbz	r0, 8002b0e <I2C_RequestMemoryRead+0x4a>
 8002afa:	681b      	ldr	r3, [r3, #0]
 8002afc:	05db      	lsls	r3, r3, #23
 8002afe:	d502      	bpl.n	8002b06 <I2C_RequestMemoryRead+0x42>
 8002b00:	f44f 7300 	mov.w	r3, #512	; 0x200
 8002b04:	6423      	str	r3, [r4, #64]	; 0x40
 8002b06:	2003      	movs	r0, #3
 8002b08:	b004      	add	sp, #16
 8002b0a:	e8bd 87f0 	ldmia.w	sp!, {r4, r5, r6, r7, r8, r9, sl, pc}
 8002b0e:	fa5f f986 	uxtb.w	r9, r6
 8002b12:	f006 06fe 	and.w	r6, r6, #254	; 0xfe
 8002b16:	611e      	str	r6, [r3, #16]
 8002b18:	492a      	ldr	r1, [pc, #168]	; (8002bc4 <I2C_RequestMemoryRead+0x100>)
 8002b1a:	4643      	mov	r3, r8
 8002b1c:	463a      	mov	r2, r7
 8002b1e:	4620      	mov	r0, r4
 8002b20:	f7ff fe8f 	bl	8002842 <I2C_WaitOnMasterAddressFlagUntilTimeout>
 8002b24:	b108      	cbz	r0, 8002b2a <I2C_RequestMemoryRead+0x66>
 8002b26:	2001      	movs	r0, #1
 8002b28:	e7ee      	b.n	8002b08 <I2C_RequestMemoryRead+0x44>
 8002b2a:	6823      	ldr	r3, [r4, #0]
 8002b2c:	9003      	str	r0, [sp, #12]
 8002b2e:	695a      	ldr	r2, [r3, #20]
 8002b30:	9203      	str	r2, [sp, #12]
 8002b32:	699b      	ldr	r3, [r3, #24]
 8002b34:	9303      	str	r3, [sp, #12]
 8002b36:	4642      	mov	r2, r8
 8002b38:	4639      	mov	r1, r7
 8002b3a:	4620      	mov	r0, r4
 8002b3c:	9b03      	ldr	r3, [sp, #12]
 8002b3e:	f7ff ff42 	bl	80029c6 <I2C_WaitOnTXEFlagUntilTimeout>
 8002b42:	b140      	cbz	r0, 8002b56 <I2C_RequestMemoryRead+0x92>
 8002b44:	6c23      	ldr	r3, [r4, #64]	; 0x40
 8002b46:	2b04      	cmp	r3, #4
 8002b48:	bf01      	itttt	eq
 8002b4a:	6822      	ldreq	r2, [r4, #0]
 8002b4c:	6813      	ldreq	r3, [r2, #0]
 8002b4e:	f443 7300 	orreq.w	r3, r3, #512	; 0x200
 8002b52:	6013      	streq	r3, [r2, #0]
 8002b54:	e7e7      	b.n	8002b26 <I2C_RequestMemoryRead+0x62>
 8002b56:	f1ba 0f01 	cmp.w	sl, #1
 8002b5a:	6823      	ldr	r3, [r4, #0]
 8002b5c:	d11a      	bne.n	8002b94 <I2C_RequestMemoryRead+0xd0>
 8002b5e:	b2ed      	uxtb	r5, r5
 8002b60:	611d      	str	r5, [r3, #16]
 8002b62:	4642      	mov	r2, r8
 8002b64:	4639      	mov	r1, r7
 8002b66:	4620      	mov	r0, r4
 8002b68:	f7ff ff2d 	bl	80029c6 <I2C_WaitOnTXEFlagUntilTimeout>
 8002b6c:	2800      	cmp	r0, #0
 8002b6e:	d1e9      	bne.n	8002b44 <I2C_RequestMemoryRead+0x80>
 8002b70:	6822      	ldr	r2, [r4, #0]
 8002b72:	6813      	ldr	r3, [r2, #0]
 8002b74:	f443 7380 	orr.w	r3, r3, #256	; 0x100
 8002b78:	6013      	str	r3, [r2, #0]
 8002b7a:	f04f 1101 	mov.w	r1, #65537	; 0x10001
 8002b7e:	4602      	mov	r2, r0
 8002b80:	f8cd 8000 	str.w	r8, [sp]
 8002b84:	463b      	mov	r3, r7
 8002b86:	4620      	mov	r0, r4
 8002b88:	f7ff feeb 	bl	8002962 <I2C_WaitOnFlagUntilTimeout>
 8002b8c:	6822      	ldr	r2, [r4, #0]
 8002b8e:	b160      	cbz	r0, 8002baa <I2C_RequestMemoryRead+0xe6>
 8002b90:	6813      	ldr	r3, [r2, #0]
 8002b92:	e7b3      	b.n	8002afc <I2C_RequestMemoryRead+0x38>
 8002b94:	0a2a      	lsrs	r2, r5, #8
 8002b96:	611a      	str	r2, [r3, #16]
 8002b98:	4639      	mov	r1, r7
 8002b9a:	4642      	mov	r2, r8
 8002b9c:	4620      	mov	r0, r4
 8002b9e:	f7ff ff12 	bl	80029c6 <I2C_WaitOnTXEFlagUntilTimeout>
 8002ba2:	2800      	cmp	r0, #0
 8002ba4:	d1ce      	bne.n	8002b44 <I2C_RequestMemoryRead+0x80>
 8002ba6:	6823      	ldr	r3, [r4, #0]
 8002ba8:	e7d9      	b.n	8002b5e <I2C_RequestMemoryRead+0x9a>
 8002baa:	f049 0301 	orr.w	r3, r9, #1
 8002bae:	6113      	str	r3, [r2, #16]
 8002bb0:	4904      	ldr	r1, [pc, #16]	; (8002bc4 <I2C_RequestMemoryRead+0x100>)
 8002bb2:	4643      	mov	r3, r8
 8002bb4:	463a      	mov	r2, r7
 8002bb6:	4620      	mov	r0, r4
 8002bb8:	f7ff fe43 	bl	8002842 <I2C_WaitOnMasterAddressFlagUntilTimeout>
 8002bbc:	3800      	subs	r0, #0
 8002bbe:	bf18      	it	ne
 8002bc0:	2001      	movne	r0, #1
 8002bc2:	e7a1      	b.n	8002b08 <I2C_RequestMemoryRead+0x44>
 8002bc4:	00010002 	.word	0x00010002

08002bc8 <HAL_I2C_Init>:
 8002bc8:	b570      	push	{r4, r5, r6, lr}
 8002bca:	4604      	mov	r4, r0
 8002bcc:	b908      	cbnz	r0, 8002bd2 <HAL_I2C_Init+0xa>
 8002bce:	2001      	movs	r0, #1
 8002bd0:	bd70      	pop	{r4, r5, r6, pc}
 8002bd2:	f890 303d 	ldrb.w	r3, [r0, #61]	; 0x3d
 8002bd6:	f003 02ff 	and.w	r2, r3, #255	; 0xff
 8002bda:	b91b      	cbnz	r3, 8002be4 <HAL_I2C_Init+0x1c>
 8002bdc:	f880 203c 	strb.w	r2, [r0, #60]	; 0x3c
 8002be0:	f7fe fc4a 	bl	8001478 <HAL_I2C_MspInit>
 8002be4:	2324      	movs	r3, #36	; 0x24
 8002be6:	f884 303d 	strb.w	r3, [r4, #61]	; 0x3d
 8002bea:	6823      	ldr	r3, [r4, #0]
 8002bec:	681a      	ldr	r2, [r3, #0]
 8002bee:	f022 0201 	bic.w	r2, r2, #1
 8002bf2:	601a      	str	r2, [r3, #0]
 8002bf4:	681a      	ldr	r2, [r3, #0]
 8002bf6:	f442 4200 	orr.w	r2, r2, #32768	; 0x8000
 8002bfa:	601a      	str	r2, [r3, #0]
 8002bfc:	681a      	ldr	r2, [r3, #0]
 8002bfe:	f422 4200 	bic.w	r2, r2, #32768	; 0x8000
 8002c02:	601a      	str	r2, [r3, #0]
 8002c04:	f000 fd46 	bl	8003694 <HAL_RCC_GetPCLK1Freq>
 8002c08:	4a3f      	ldr	r2, [pc, #252]	; (8002d08 <HAL_I2C_Init+0x140>)
 8002c0a:	6863      	ldr	r3, [r4, #4]
 8002c0c:	4293      	cmp	r3, r2
 8002c0e:	bf94      	ite	ls
 8002c10:	4a3e      	ldrls	r2, [pc, #248]	; (8002d0c <HAL_I2C_Init+0x144>)
 8002c12:	4a3f      	ldrhi	r2, [pc, #252]	; (8002d10 <HAL_I2C_Init+0x148>)
 8002c14:	4290      	cmp	r0, r2
 8002c16:	bf8c      	ite	hi
 8002c18:	2200      	movhi	r2, #0
 8002c1a:	2201      	movls	r2, #1
 8002c1c:	2a00      	cmp	r2, #0
 8002c1e:	d1d6      	bne.n	8002bce <HAL_I2C_Init+0x6>
 8002c20:	6821      	ldr	r1, [r4, #0]
 8002c22:	4e3c      	ldr	r6, [pc, #240]	; (8002d14 <HAL_I2C_Init+0x14c>)
 8002c24:	684a      	ldr	r2, [r1, #4]
 8002c26:	fbb0 f6f6 	udiv	r6, r0, r6
 8002c2a:	f022 023f 	bic.w	r2, r2, #63	; 0x3f
 8002c2e:	4332      	orrs	r2, r6
 8002c30:	604a      	str	r2, [r1, #4]
 8002c32:	4a35      	ldr	r2, [pc, #212]	; (8002d08 <HAL_I2C_Init+0x140>)
 8002c34:	6a0d      	ldr	r5, [r1, #32]
 8002c36:	4293      	cmp	r3, r2
 8002c38:	bf84      	itt	hi
 8002c3a:	f44f 7296 	movhi.w	r2, #300	; 0x12c
 8002c3e:	4372      	mulhi	r2, r6
 8002c40:	f025 053f 	bic.w	r5, r5, #63	; 0x3f
 8002c44:	bf91      	iteee	ls
 8002c46:	1c72      	addls	r2, r6, #1
 8002c48:	f44f 767a 	movhi.w	r6, #1000	; 0x3e8
 8002c4c:	fbb2 f2f6 	udivhi	r2, r2, r6
 8002c50:	3201      	addhi	r2, #1
 8002c52:	432a      	orrs	r2, r5
 8002c54:	620a      	str	r2, [r1, #32]
 8002c56:	69cd      	ldr	r5, [r1, #28]
 8002c58:	1e42      	subs	r2, r0, #1
 8002c5a:	482b      	ldr	r0, [pc, #172]	; (8002d08 <HAL_I2C_Init+0x140>)
 8002c5c:	f425 454f 	bic.w	r5, r5, #52992	; 0xcf00
 8002c60:	4283      	cmp	r3, r0
 8002c62:	f025 05ff 	bic.w	r5, r5, #255	; 0xff
 8002c66:	d832      	bhi.n	8002cce <HAL_I2C_Init+0x106>
 8002c68:	005b      	lsls	r3, r3, #1
 8002c6a:	fbb2 f3f3 	udiv	r3, r2, r3
 8002c6e:	f640 72fc 	movw	r2, #4092	; 0xffc
 8002c72:	3301      	adds	r3, #1
 8002c74:	4213      	tst	r3, r2
 8002c76:	d042      	beq.n	8002cfe <HAL_I2C_Init+0x136>
 8002c78:	f3c3 030b 	ubfx	r3, r3, #0, #12
 8002c7c:	432b      	orrs	r3, r5
 8002c7e:	61cb      	str	r3, [r1, #28]
 8002c80:	e9d4 3007 	ldrd	r3, r0, [r4, #28]
 8002c84:	680a      	ldr	r2, [r1, #0]
 8002c86:	4303      	orrs	r3, r0
 8002c88:	f022 02c0 	bic.w	r2, r2, #192	; 0xc0
 8002c8c:	4313      	orrs	r3, r2
 8002c8e:	600b      	str	r3, [r1, #0]
 8002c90:	688a      	ldr	r2, [r1, #8]
 8002c92:	e9d4 0303 	ldrd	r0, r3, [r4, #12]
 8002c96:	f422 4203 	bic.w	r2, r2, #33536	; 0x8300
 8002c9a:	4303      	orrs	r3, r0
 8002c9c:	f022 02ff 	bic.w	r2, r2, #255	; 0xff
 8002ca0:	4313      	orrs	r3, r2
 8002ca2:	608b      	str	r3, [r1, #8]
 8002ca4:	e9d4 3005 	ldrd	r3, r0, [r4, #20]
 8002ca8:	68ca      	ldr	r2, [r1, #12]
 8002caa:	4303      	orrs	r3, r0
 8002cac:	f022 02ff 	bic.w	r2, r2, #255	; 0xff
 8002cb0:	4313      	orrs	r3, r2
 8002cb2:	60cb      	str	r3, [r1, #12]
 8002cb4:	680b      	ldr	r3, [r1, #0]
 8002cb6:	f043 0301 	orr.w	r3, r3, #1
 8002cba:	600b      	str	r3, [r1, #0]
 8002cbc:	2000      	movs	r0, #0
 8002cbe:	2320      	movs	r3, #32
 8002cc0:	6420      	str	r0, [r4, #64]	; 0x40
 8002cc2:	f884 303d 	strb.w	r3, [r4, #61]	; 0x3d
 8002cc6:	6320      	str	r0, [r4, #48]	; 0x30
 8002cc8:	f884 003e 	strb.w	r0, [r4, #62]	; 0x3e
 8002ccc:	e780      	b.n	8002bd0 <HAL_I2C_Init+0x8>
 8002cce:	68a0      	ldr	r0, [r4, #8]
 8002cd0:	b950      	cbnz	r0, 8002ce8 <HAL_I2C_Init+0x120>
 8002cd2:	eb03 0343 	add.w	r3, r3, r3, lsl #1
 8002cd6:	fbb2 f3f3 	udiv	r3, r2, r3
 8002cda:	3301      	adds	r3, #1
 8002cdc:	f3c3 030b 	ubfx	r3, r3, #0, #12
 8002ce0:	b17b      	cbz	r3, 8002d02 <HAL_I2C_Init+0x13a>
 8002ce2:	f443 4300 	orr.w	r3, r3, #32768	; 0x8000
 8002ce6:	e7c9      	b.n	8002c7c <HAL_I2C_Init+0xb4>
 8002ce8:	2019      	movs	r0, #25
 8002cea:	4343      	muls	r3, r0
 8002cec:	fbb2 f3f3 	udiv	r3, r2, r3
 8002cf0:	3301      	adds	r3, #1
 8002cf2:	f3c3 030b 	ubfx	r3, r3, #0, #12
 8002cf6:	b123      	cbz	r3, 8002d02 <HAL_I2C_Init+0x13a>
 8002cf8:	f443 4340 	orr.w	r3, r3, #49152	; 0xc000
 8002cfc:	e7be      	b.n	8002c7c <HAL_I2C_Init+0xb4>
 8002cfe:	2304      	movs	r3, #4
 8002d00:	e7bc      	b.n	8002c7c <HAL_I2C_Init+0xb4>
 8002d02:	2301      	movs	r3, #1
 8002d04:	e7ba      	b.n	8002c7c <HAL_I2C_Init+0xb4>
 8002d06:	bf00      	nop
 8002d08:	000186a0 	.word	0x000186a0
 8002d0c:	001e847f 	.word	0x001e847f
 8002d10:	003d08ff 	.word	0x003d08ff
 8002d14:	000f4240 	.word	0x000f4240

08002d18 <HAL_I2C_Mem_Write>:
 8002d18:	e92d 43f7 	stmdb	sp!, {r0, r1, r2, r4, r5, r6, r7, r8, r9, lr}
 8002d1c:	4604      	mov	r4, r0
 8002d1e:	4699      	mov	r9, r3
 8002d20:	9e0c      	ldr	r6, [sp, #48]	; 0x30
 8002d22:	460f      	mov	r7, r1
 8002d24:	4690      	mov	r8, r2
 8002d26:	f7ff f87f 	bl	8001e28 <HAL_GetTick>
 8002d2a:	f894 303d 	ldrb.w	r3, [r4, #61]	; 0x3d
 8002d2e:	2b20      	cmp	r3, #32
 8002d30:	4605      	mov	r5, r0
 8002d32:	d003      	beq.n	8002d3c <HAL_I2C_Mem_Write+0x24>
 8002d34:	2002      	movs	r0, #2
 8002d36:	b003      	add	sp, #12
 8002d38:	e8bd 83f0 	ldmia.w	sp!, {r4, r5, r6, r7, r8, r9, pc}
 8002d3c:	9000      	str	r0, [sp, #0]
 8002d3e:	493c      	ldr	r1, [pc, #240]	; (8002e30 <HAL_I2C_Mem_Write+0x118>)
 8002d40:	2319      	movs	r3, #25
 8002d42:	2201      	movs	r2, #1
 8002d44:	4620      	mov	r0, r4
 8002d46:	f7ff fe0c 	bl	8002962 <I2C_WaitOnFlagUntilTimeout>
 8002d4a:	2800      	cmp	r0, #0
 8002d4c:	d1f2      	bne.n	8002d34 <HAL_I2C_Mem_Write+0x1c>
 8002d4e:	f894 303c 	ldrb.w	r3, [r4, #60]	; 0x3c
 8002d52:	2b01      	cmp	r3, #1
 8002d54:	d0ee      	beq.n	8002d34 <HAL_I2C_Mem_Write+0x1c>
 8002d56:	6820      	ldr	r0, [r4, #0]
 8002d58:	2301      	movs	r3, #1
 8002d5a:	f884 303c 	strb.w	r3, [r4, #60]	; 0x3c
 8002d5e:	6803      	ldr	r3, [r0, #0]
 8002d60:	07d9      	lsls	r1, r3, #31
 8002d62:	bf5e      	ittt	pl
 8002d64:	6803      	ldrpl	r3, [r0, #0]
 8002d66:	f043 0301 	orrpl.w	r3, r3, #1
 8002d6a:	6003      	strpl	r3, [r0, #0]
 8002d6c:	6803      	ldr	r3, [r0, #0]
 8002d6e:	f423 6300 	bic.w	r3, r3, #2048	; 0x800
 8002d72:	6003      	str	r3, [r0, #0]
 8002d74:	2321      	movs	r3, #33	; 0x21
 8002d76:	f884 303d 	strb.w	r3, [r4, #61]	; 0x3d
 8002d7a:	2340      	movs	r3, #64	; 0x40
 8002d7c:	f884 303e 	strb.w	r3, [r4, #62]	; 0x3e
 8002d80:	2300      	movs	r3, #0
 8002d82:	6423      	str	r3, [r4, #64]	; 0x40
 8002d84:	9b0a      	ldr	r3, [sp, #40]	; 0x28
 8002d86:	6263      	str	r3, [r4, #36]	; 0x24
 8002d88:	f8bd 302c 	ldrh.w	r3, [sp, #44]	; 0x2c
 8002d8c:	8563      	strh	r3, [r4, #42]	; 0x2a
 8002d8e:	8d63      	ldrh	r3, [r4, #42]	; 0x2a
 8002d90:	8523      	strh	r3, [r4, #40]	; 0x28
 8002d92:	4b28      	ldr	r3, [pc, #160]	; (8002e34 <HAL_I2C_Mem_Write+0x11c>)
 8002d94:	62e3      	str	r3, [r4, #44]	; 0x2c
 8002d96:	e9cd 6500 	strd	r6, r5, [sp]
 8002d9a:	464b      	mov	r3, r9
 8002d9c:	4642      	mov	r2, r8
 8002d9e:	4639      	mov	r1, r7
 8002da0:	4620      	mov	r0, r4
 8002da2:	f7ff fe37 	bl	8002a14 <I2C_RequestMemoryWrite>
 8002da6:	2800      	cmp	r0, #0
 8002da8:	d02a      	beq.n	8002e00 <HAL_I2C_Mem_Write+0xe8>
 8002daa:	2001      	movs	r0, #1
 8002dac:	e7c3      	b.n	8002d36 <HAL_I2C_Mem_Write+0x1e>
 8002dae:	f7ff fe0a 	bl	80029c6 <I2C_WaitOnTXEFlagUntilTimeout>
 8002db2:	b140      	cbz	r0, 8002dc6 <HAL_I2C_Mem_Write+0xae>
 8002db4:	6c23      	ldr	r3, [r4, #64]	; 0x40
 8002db6:	2b04      	cmp	r3, #4
 8002db8:	bf01      	itttt	eq
 8002dba:	6822      	ldreq	r2, [r4, #0]
 8002dbc:	6813      	ldreq	r3, [r2, #0]
 8002dbe:	f443 7300 	orreq.w	r3, r3, #512	; 0x200
 8002dc2:	6013      	streq	r3, [r2, #0]
 8002dc4:	e7f1      	b.n	8002daa <HAL_I2C_Mem_Write+0x92>
 8002dc6:	6a63      	ldr	r3, [r4, #36]	; 0x24
 8002dc8:	6827      	ldr	r7, [r4, #0]
 8002dca:	461a      	mov	r2, r3
 8002dcc:	f812 1b01 	ldrb.w	r1, [r2], #1
 8002dd0:	6139      	str	r1, [r7, #16]
 8002dd2:	6262      	str	r2, [r4, #36]	; 0x24
 8002dd4:	8d62      	ldrh	r2, [r4, #42]	; 0x2a
 8002dd6:	8d21      	ldrh	r1, [r4, #40]	; 0x28
 8002dd8:	3a01      	subs	r2, #1
 8002dda:	b292      	uxth	r2, r2
 8002ddc:	8562      	strh	r2, [r4, #42]	; 0x2a
 8002dde:	697a      	ldr	r2, [r7, #20]
 8002de0:	1e48      	subs	r0, r1, #1
 8002de2:	b280      	uxth	r0, r0
 8002de4:	0752      	lsls	r2, r2, #29
 8002de6:	8520      	strh	r0, [r4, #40]	; 0x28
 8002de8:	d50a      	bpl.n	8002e00 <HAL_I2C_Mem_Write+0xe8>
 8002dea:	b148      	cbz	r0, 8002e00 <HAL_I2C_Mem_Write+0xe8>
 8002dec:	785a      	ldrb	r2, [r3, #1]
 8002dee:	613a      	str	r2, [r7, #16]
 8002df0:	3302      	adds	r3, #2
 8002df2:	6263      	str	r3, [r4, #36]	; 0x24
 8002df4:	8d63      	ldrh	r3, [r4, #42]	; 0x2a
 8002df6:	3b01      	subs	r3, #1
 8002df8:	3902      	subs	r1, #2
 8002dfa:	b29b      	uxth	r3, r3
 8002dfc:	8521      	strh	r1, [r4, #40]	; 0x28
 8002dfe:	8563      	strh	r3, [r4, #42]	; 0x2a
 8002e00:	8d23      	ldrh	r3, [r4, #40]	; 0x28
 8002e02:	462a      	mov	r2, r5
 8002e04:	4631      	mov	r1, r6
 8002e06:	4620      	mov	r0, r4
 8002e08:	2b00      	cmp	r3, #0
 8002e0a:	d1d0      	bne.n	8002dae <HAL_I2C_Mem_Write+0x96>
 8002e0c:	f7ff fd54 	bl	80028b8 <I2C_WaitOnBTFFlagUntilTimeout>
 8002e10:	2800      	cmp	r0, #0
 8002e12:	d1cf      	bne.n	8002db4 <HAL_I2C_Mem_Write+0x9c>
 8002e14:	6822      	ldr	r2, [r4, #0]
 8002e16:	6813      	ldr	r3, [r2, #0]
 8002e18:	f443 7300 	orr.w	r3, r3, #512	; 0x200
 8002e1c:	6013      	str	r3, [r2, #0]
 8002e1e:	2320      	movs	r3, #32
 8002e20:	f884 303d 	strb.w	r3, [r4, #61]	; 0x3d
 8002e24:	f884 003c 	strb.w	r0, [r4, #60]	; 0x3c
 8002e28:	f884 003e 	strb.w	r0, [r4, #62]	; 0x3e
 8002e2c:	e783      	b.n	8002d36 <HAL_I2C_Mem_Write+0x1e>
 8002e2e:	bf00      	nop
 8002e30:	00100002 	.word	0x00100002
 8002e34:	ffff0000 	.word	0xffff0000

08002e38 <HAL_I2C_Mem_Read>:
 8002e38:	e92d 43f0 	stmdb	sp!, {r4, r5, r6, r7, r8, r9, lr}
 8002e3c:	4604      	mov	r4, r0
 8002e3e:	b087      	sub	sp, #28
 8002e40:	4699      	mov	r9, r3
 8002e42:	9f10      	ldr	r7, [sp, #64]	; 0x40
 8002e44:	460d      	mov	r5, r1
 8002e46:	4690      	mov	r8, r2
 8002e48:	f7fe ffee 	bl	8001e28 <HAL_GetTick>
 8002e4c:	f894 303d 	ldrb.w	r3, [r4, #61]	; 0x3d
 8002e50:	2b20      	cmp	r3, #32
 8002e52:	4606      	mov	r6, r0
 8002e54:	d004      	beq.n	8002e60 <HAL_I2C_Mem_Read+0x28>
 8002e56:	2502      	movs	r5, #2
 8002e58:	4628      	mov	r0, r5
 8002e5a:	b007      	add	sp, #28
 8002e5c:	e8bd 83f0 	ldmia.w	sp!, {r4, r5, r6, r7, r8, r9, pc}
 8002e60:	9000      	str	r0, [sp, #0]
 8002e62:	4976      	ldr	r1, [pc, #472]	; (800303c <HAL_I2C_Mem_Read+0x204>)
 8002e64:	2319      	movs	r3, #25
 8002e66:	2201      	movs	r2, #1
 8002e68:	4620      	mov	r0, r4
 8002e6a:	f7ff fd7a 	bl	8002962 <I2C_WaitOnFlagUntilTimeout>
 8002e6e:	2800      	cmp	r0, #0
 8002e70:	d1f1      	bne.n	8002e56 <HAL_I2C_Mem_Read+0x1e>
 8002e72:	f894 303c 	ldrb.w	r3, [r4, #60]	; 0x3c
 8002e76:	2b01      	cmp	r3, #1
 8002e78:	d0ed      	beq.n	8002e56 <HAL_I2C_Mem_Read+0x1e>
 8002e7a:	6820      	ldr	r0, [r4, #0]
 8002e7c:	2301      	movs	r3, #1
 8002e7e:	f884 303c 	strb.w	r3, [r4, #60]	; 0x3c
 8002e82:	6803      	ldr	r3, [r0, #0]
 8002e84:	07db      	lsls	r3, r3, #31
 8002e86:	bf5e      	ittt	pl
 8002e88:	6803      	ldrpl	r3, [r0, #0]
 8002e8a:	f043 0301 	orrpl.w	r3, r3, #1
 8002e8e:	6003      	strpl	r3, [r0, #0]
 8002e90:	6803      	ldr	r3, [r0, #0]
 8002e92:	f423 6300 	bic.w	r3, r3, #2048	; 0x800
 8002e96:	6003      	str	r3, [r0, #0]
 8002e98:	2322      	movs	r3, #34	; 0x22
 8002e9a:	f884 303d 	strb.w	r3, [r4, #61]	; 0x3d
 8002e9e:	2340      	movs	r3, #64	; 0x40
 8002ea0:	f884 303e 	strb.w	r3, [r4, #62]	; 0x3e
 8002ea4:	2300      	movs	r3, #0
 8002ea6:	6423      	str	r3, [r4, #64]	; 0x40
 8002ea8:	9b0e      	ldr	r3, [sp, #56]	; 0x38
 8002eaa:	6263      	str	r3, [r4, #36]	; 0x24
 8002eac:	f8bd 303c 	ldrh.w	r3, [sp, #60]	; 0x3c
 8002eb0:	8563      	strh	r3, [r4, #42]	; 0x2a
 8002eb2:	8d63      	ldrh	r3, [r4, #42]	; 0x2a
 8002eb4:	8523      	strh	r3, [r4, #40]	; 0x28
 8002eb6:	4b62      	ldr	r3, [pc, #392]	; (8003040 <HAL_I2C_Mem_Read+0x208>)
 8002eb8:	62e3      	str	r3, [r4, #44]	; 0x2c
 8002eba:	4629      	mov	r1, r5
 8002ebc:	e9cd 7600 	strd	r7, r6, [sp]
 8002ec0:	464b      	mov	r3, r9
 8002ec2:	4642      	mov	r2, r8
 8002ec4:	4620      	mov	r0, r4
 8002ec6:	f7ff fdfd 	bl	8002ac4 <I2C_RequestMemoryRead>
 8002eca:	4605      	mov	r5, r0
 8002ecc:	b108      	cbz	r0, 8002ed2 <HAL_I2C_Mem_Read+0x9a>
 8002ece:	2501      	movs	r5, #1
 8002ed0:	e7c2      	b.n	8002e58 <HAL_I2C_Mem_Read+0x20>
 8002ed2:	8d22      	ldrh	r2, [r4, #40]	; 0x28
 8002ed4:	6823      	ldr	r3, [r4, #0]
 8002ed6:	b9b2      	cbnz	r2, 8002f06 <HAL_I2C_Mem_Read+0xce>
 8002ed8:	9002      	str	r0, [sp, #8]
 8002eda:	695a      	ldr	r2, [r3, #20]
 8002edc:	9202      	str	r2, [sp, #8]
 8002ede:	699a      	ldr	r2, [r3, #24]
 8002ee0:	9202      	str	r2, [sp, #8]
 8002ee2:	9a02      	ldr	r2, [sp, #8]
 8002ee4:	681a      	ldr	r2, [r3, #0]
 8002ee6:	f442 7200 	orr.w	r2, r2, #512	; 0x200
 8002eea:	601a      	str	r2, [r3, #0]
 8002eec:	f8df 8154 	ldr.w	r8, [pc, #340]	; 8003044 <HAL_I2C_Mem_Read+0x20c>
 8002ef0:	8d23      	ldrh	r3, [r4, #40]	; 0x28
 8002ef2:	2b00      	cmp	r3, #0
 8002ef4:	d12c      	bne.n	8002f50 <HAL_I2C_Mem_Read+0x118>
 8002ef6:	2220      	movs	r2, #32
 8002ef8:	f884 203d 	strb.w	r2, [r4, #61]	; 0x3d
 8002efc:	f884 303c 	strb.w	r3, [r4, #60]	; 0x3c
 8002f00:	f884 303e 	strb.w	r3, [r4, #62]	; 0x3e
 8002f04:	e7a8      	b.n	8002e58 <HAL_I2C_Mem_Read+0x20>
 8002f06:	2a01      	cmp	r2, #1
 8002f08:	d10a      	bne.n	8002f20 <HAL_I2C_Mem_Read+0xe8>
 8002f0a:	681a      	ldr	r2, [r3, #0]
 8002f0c:	f422 6280 	bic.w	r2, r2, #1024	; 0x400
 8002f10:	601a      	str	r2, [r3, #0]
 8002f12:	9003      	str	r0, [sp, #12]
 8002f14:	695a      	ldr	r2, [r3, #20]
 8002f16:	9203      	str	r2, [sp, #12]
 8002f18:	699a      	ldr	r2, [r3, #24]
 8002f1a:	9203      	str	r2, [sp, #12]
 8002f1c:	9a03      	ldr	r2, [sp, #12]
 8002f1e:	e7e1      	b.n	8002ee4 <HAL_I2C_Mem_Read+0xac>
 8002f20:	2a02      	cmp	r2, #2
 8002f22:	d10e      	bne.n	8002f42 <HAL_I2C_Mem_Read+0x10a>
 8002f24:	681a      	ldr	r2, [r3, #0]
 8002f26:	f422 6280 	bic.w	r2, r2, #1024	; 0x400
 8002f2a:	601a      	str	r2, [r3, #0]
 8002f2c:	681a      	ldr	r2, [r3, #0]
 8002f2e:	f442 6200 	orr.w	r2, r2, #2048	; 0x800
 8002f32:	601a      	str	r2, [r3, #0]
 8002f34:	9004      	str	r0, [sp, #16]
 8002f36:	695a      	ldr	r2, [r3, #20]
 8002f38:	9204      	str	r2, [sp, #16]
 8002f3a:	699b      	ldr	r3, [r3, #24]
 8002f3c:	9304      	str	r3, [sp, #16]
 8002f3e:	9b04      	ldr	r3, [sp, #16]
 8002f40:	e7d4      	b.n	8002eec <HAL_I2C_Mem_Read+0xb4>
 8002f42:	9005      	str	r0, [sp, #20]
 8002f44:	695a      	ldr	r2, [r3, #20]
 8002f46:	9205      	str	r2, [sp, #20]
 8002f48:	699b      	ldr	r3, [r3, #24]
 8002f4a:	9305      	str	r3, [sp, #20]
 8002f4c:	9b05      	ldr	r3, [sp, #20]
 8002f4e:	e7cd      	b.n	8002eec <HAL_I2C_Mem_Read+0xb4>
 8002f50:	2b03      	cmp	r3, #3
 8002f52:	d856      	bhi.n	8003002 <HAL_I2C_Mem_Read+0x1ca>
 8002f54:	2b01      	cmp	r3, #1
 8002f56:	d115      	bne.n	8002f84 <HAL_I2C_Mem_Read+0x14c>
 8002f58:	4632      	mov	r2, r6
 8002f5a:	4639      	mov	r1, r7
 8002f5c:	4620      	mov	r0, r4
 8002f5e:	f7ff fcd1 	bl	8002904 <I2C_WaitOnRXNEFlagUntilTimeout>
 8002f62:	2800      	cmp	r0, #0
 8002f64:	d1b3      	bne.n	8002ece <HAL_I2C_Mem_Read+0x96>
 8002f66:	6823      	ldr	r3, [r4, #0]
 8002f68:	691a      	ldr	r2, [r3, #16]
 8002f6a:	6a63      	ldr	r3, [r4, #36]	; 0x24
 8002f6c:	701a      	strb	r2, [r3, #0]
 8002f6e:	6a63      	ldr	r3, [r4, #36]	; 0x24
 8002f70:	3301      	adds	r3, #1
 8002f72:	6263      	str	r3, [r4, #36]	; 0x24
 8002f74:	8d23      	ldrh	r3, [r4, #40]	; 0x28
 8002f76:	3b01      	subs	r3, #1
 8002f78:	8523      	strh	r3, [r4, #40]	; 0x28
 8002f7a:	8d63      	ldrh	r3, [r4, #42]	; 0x2a
 8002f7c:	3b01      	subs	r3, #1
 8002f7e:	b29b      	uxth	r3, r3
 8002f80:	8563      	strh	r3, [r4, #42]	; 0x2a
 8002f82:	e7b5      	b.n	8002ef0 <HAL_I2C_Mem_Read+0xb8>
 8002f84:	2b02      	cmp	r3, #2
 8002f86:	9600      	str	r6, [sp, #0]
 8002f88:	463b      	mov	r3, r7
 8002f8a:	f04f 0200 	mov.w	r2, #0
 8002f8e:	4641      	mov	r1, r8
 8002f90:	4620      	mov	r0, r4
 8002f92:	d119      	bne.n	8002fc8 <HAL_I2C_Mem_Read+0x190>
 8002f94:	f7ff fce5 	bl	8002962 <I2C_WaitOnFlagUntilTimeout>
 8002f98:	2800      	cmp	r0, #0
 8002f9a:	d198      	bne.n	8002ece <HAL_I2C_Mem_Read+0x96>
 8002f9c:	6823      	ldr	r3, [r4, #0]
 8002f9e:	681a      	ldr	r2, [r3, #0]
 8002fa0:	f442 7200 	orr.w	r2, r2, #512	; 0x200
 8002fa4:	601a      	str	r2, [r3, #0]
 8002fa6:	691a      	ldr	r2, [r3, #16]
 8002fa8:	6a63      	ldr	r3, [r4, #36]	; 0x24
 8002faa:	701a      	strb	r2, [r3, #0]
 8002fac:	6a62      	ldr	r2, [r4, #36]	; 0x24
 8002fae:	1c53      	adds	r3, r2, #1
 8002fb0:	6263      	str	r3, [r4, #36]	; 0x24
 8002fb2:	8d23      	ldrh	r3, [r4, #40]	; 0x28
 8002fb4:	3b01      	subs	r3, #1
 8002fb6:	8523      	strh	r3, [r4, #40]	; 0x28
 8002fb8:	8d63      	ldrh	r3, [r4, #42]	; 0x2a
 8002fba:	3b01      	subs	r3, #1
 8002fbc:	b29b      	uxth	r3, r3
 8002fbe:	8563      	strh	r3, [r4, #42]	; 0x2a
 8002fc0:	6823      	ldr	r3, [r4, #0]
 8002fc2:	691b      	ldr	r3, [r3, #16]
 8002fc4:	7053      	strb	r3, [r2, #1]
 8002fc6:	e7d2      	b.n	8002f6e <HAL_I2C_Mem_Read+0x136>
 8002fc8:	f7ff fccb 	bl	8002962 <I2C_WaitOnFlagUntilTimeout>
 8002fcc:	2800      	cmp	r0, #0
 8002fce:	f47f af7e 	bne.w	8002ece <HAL_I2C_Mem_Read+0x96>
 8002fd2:	6823      	ldr	r3, [r4, #0]
 8002fd4:	681a      	ldr	r2, [r3, #0]
 8002fd6:	f422 6280 	bic.w	r2, r2, #1024	; 0x400
 8002fda:	601a      	str	r2, [r3, #0]
 8002fdc:	691a      	ldr	r2, [r3, #16]
 8002fde:	6a63      	ldr	r3, [r4, #36]	; 0x24
 8002fe0:	701a      	strb	r2, [r3, #0]
 8002fe2:	6a63      	ldr	r3, [r4, #36]	; 0x24
 8002fe4:	9600      	str	r6, [sp, #0]
 8002fe6:	3301      	adds	r3, #1
 8002fe8:	6263      	str	r3, [r4, #36]	; 0x24
 8002fea:	8d23      	ldrh	r3, [r4, #40]	; 0x28
 8002fec:	3b01      	subs	r3, #1
 8002fee:	8523      	strh	r3, [r4, #40]	; 0x28
 8002ff0:	8d63      	ldrh	r3, [r4, #42]	; 0x2a
 8002ff2:	3b01      	subs	r3, #1
 8002ff4:	b29b      	uxth	r3, r3
 8002ff6:	8563      	strh	r3, [r4, #42]	; 0x2a
 8002ff8:	4602      	mov	r2, r0
 8002ffa:	463b      	mov	r3, r7
 8002ffc:	4641      	mov	r1, r8
 8002ffe:	4620      	mov	r0, r4
 8003000:	e7c8      	b.n	8002f94 <HAL_I2C_Mem_Read+0x15c>
 8003002:	4632      	mov	r2, r6
 8003004:	4639      	mov	r1, r7
 8003006:	4620      	mov	r0, r4
 8003008:	f7ff fc7c 	bl	8002904 <I2C_WaitOnRXNEFlagUntilTimeout>
 800300c:	2800      	cmp	r0, #0
 800300e:	f47f af5e 	bne.w	8002ece <HAL_I2C_Mem_Read+0x96>
 8003012:	6823      	ldr	r3, [r4, #0]
 8003014:	691a      	ldr	r2, [r3, #16]
 8003016:	6a63      	ldr	r3, [r4, #36]	; 0x24
 8003018:	701a      	strb	r2, [r3, #0]
 800301a:	6a62      	ldr	r2, [r4, #36]	; 0x24
 800301c:	1c53      	adds	r3, r2, #1
 800301e:	6263      	str	r3, [r4, #36]	; 0x24
 8003020:	8d23      	ldrh	r3, [r4, #40]	; 0x28
 8003022:	3b01      	subs	r3, #1
 8003024:	8523      	strh	r3, [r4, #40]	; 0x28
 8003026:	8d63      	ldrh	r3, [r4, #42]	; 0x2a
 8003028:	3b01      	subs	r3, #1
 800302a:	b29b      	uxth	r3, r3
 800302c:	8563      	strh	r3, [r4, #42]	; 0x2a
 800302e:	6823      	ldr	r3, [r4, #0]
 8003030:	6959      	ldr	r1, [r3, #20]
 8003032:	0749      	lsls	r1, r1, #29
 8003034:	f57f af5c 	bpl.w	8002ef0 <HAL_I2C_Mem_Read+0xb8>
 8003038:	e7c3      	b.n	8002fc2 <HAL_I2C_Mem_Read+0x18a>
 800303a:	bf00      	nop
 800303c:	00100002 	.word	0x00100002
 8003040:	ffff0000 	.word	0xffff0000
 8003044:	00010004 	.word	0x00010004

08003048 <HAL_I2C_IsDeviceReady>:
 8003048:	e92d 4ff0 	stmdb	sp!, {r4, r5, r6, r7, r8, r9, sl, fp, lr}
 800304c:	4604      	mov	r4, r0
 800304e:	b085      	sub	sp, #20
 8003050:	461e      	mov	r6, r3
 8003052:	460f      	mov	r7, r1
 8003054:	4691      	mov	r9, r2
 8003056:	f7fe fee7 	bl	8001e28 <HAL_GetTick>
 800305a:	f894 303d 	ldrb.w	r3, [r4, #61]	; 0x3d
 800305e:	2b20      	cmp	r3, #32
 8003060:	4605      	mov	r5, r0
 8003062:	d003      	beq.n	800306c <HAL_I2C_IsDeviceReady+0x24>
 8003064:	2002      	movs	r0, #2
 8003066:	b005      	add	sp, #20
 8003068:	e8bd 8ff0 	ldmia.w	sp!, {r4, r5, r6, r7, r8, r9, sl, fp, pc}
 800306c:	9000      	str	r0, [sp, #0]
 800306e:	494d      	ldr	r1, [pc, #308]	; (80031a4 <HAL_I2C_IsDeviceReady+0x15c>)
 8003070:	2319      	movs	r3, #25
 8003072:	2201      	movs	r2, #1
 8003074:	4620      	mov	r0, r4
 8003076:	f7ff fc74 	bl	8002962 <I2C_WaitOnFlagUntilTimeout>
 800307a:	2800      	cmp	r0, #0
 800307c:	d1f2      	bne.n	8003064 <HAL_I2C_IsDeviceReady+0x1c>
 800307e:	f894 303c 	ldrb.w	r3, [r4, #60]	; 0x3c
 8003082:	2b01      	cmp	r3, #1
 8003084:	d0ee      	beq.n	8003064 <HAL_I2C_IsDeviceReady+0x1c>
 8003086:	2301      	movs	r3, #1
 8003088:	f884 303c 	strb.w	r3, [r4, #60]	; 0x3c
 800308c:	6823      	ldr	r3, [r4, #0]
 800308e:	f8df b114 	ldr.w	fp, [pc, #276]	; 80031a4 <HAL_I2C_IsDeviceReady+0x15c>
 8003092:	681a      	ldr	r2, [r3, #0]
 8003094:	07d2      	lsls	r2, r2, #31
 8003096:	bf5e      	ittt	pl
 8003098:	681a      	ldrpl	r2, [r3, #0]
 800309a:	f042 0201 	orrpl.w	r2, r2, #1
 800309e:	601a      	strpl	r2, [r3, #0]
 80030a0:	681a      	ldr	r2, [r3, #0]
 80030a2:	f422 6200 	bic.w	r2, r2, #2048	; 0x800
 80030a6:	601a      	str	r2, [r3, #0]
 80030a8:	2324      	movs	r3, #36	; 0x24
 80030aa:	f884 303d 	strb.w	r3, [r4, #61]	; 0x3d
 80030ae:	2300      	movs	r3, #0
 80030b0:	6423      	str	r3, [r4, #64]	; 0x40
 80030b2:	f5a3 3380 	sub.w	r3, r3, #65536	; 0x10000
 80030b6:	62e3      	str	r3, [r4, #44]	; 0x2c
 80030b8:	f04f 0a01 	mov.w	sl, #1
 80030bc:	f007 07fe 	and.w	r7, r7, #254	; 0xfe
 80030c0:	6822      	ldr	r2, [r4, #0]
 80030c2:	6813      	ldr	r3, [r2, #0]
 80030c4:	f443 7380 	orr.w	r3, r3, #256	; 0x100
 80030c8:	6013      	str	r3, [r2, #0]
 80030ca:	f04f 1101 	mov.w	r1, #65537	; 0x10001
 80030ce:	4633      	mov	r3, r6
 80030d0:	9500      	str	r5, [sp, #0]
 80030d2:	2200      	movs	r2, #0
 80030d4:	4620      	mov	r0, r4
 80030d6:	f7ff fc44 	bl	8002962 <I2C_WaitOnFlagUntilTimeout>
 80030da:	6823      	ldr	r3, [r4, #0]
 80030dc:	b138      	cbz	r0, 80030ee <HAL_I2C_IsDeviceReady+0xa6>
 80030de:	681b      	ldr	r3, [r3, #0]
 80030e0:	05db      	lsls	r3, r3, #23
 80030e2:	d502      	bpl.n	80030ea <HAL_I2C_IsDeviceReady+0xa2>
 80030e4:	f44f 7300 	mov.w	r3, #512	; 0x200
 80030e8:	6423      	str	r3, [r4, #64]	; 0x40
 80030ea:	2003      	movs	r0, #3
 80030ec:	e7bb      	b.n	8003066 <HAL_I2C_IsDeviceReady+0x1e>
 80030ee:	611f      	str	r7, [r3, #16]
 80030f0:	f7fe fe9a 	bl	8001e28 <HAL_GetTick>
 80030f4:	6823      	ldr	r3, [r4, #0]
 80030f6:	695a      	ldr	r2, [r3, #20]
 80030f8:	695b      	ldr	r3, [r3, #20]
 80030fa:	4605      	mov	r5, r0
 80030fc:	f3c2 0240 	ubfx	r2, r2, #1, #1
 8003100:	f3c3 2380 	ubfx	r3, r3, #10, #1
 8003104:	f04f 08a0 	mov.w	r8, #160	; 0xa0
 8003108:	f894 103d 	ldrb.w	r1, [r4, #61]	; 0x3d
 800310c:	29a0      	cmp	r1, #160	; 0xa0
 800310e:	d001      	beq.n	8003114 <HAL_I2C_IsDeviceReady+0xcc>
 8003110:	4313      	orrs	r3, r2
 8003112:	d01d      	beq.n	8003150 <HAL_I2C_IsDeviceReady+0x108>
 8003114:	6823      	ldr	r3, [r4, #0]
 8003116:	f04f 0820 	mov.w	r8, #32
 800311a:	f884 803d 	strb.w	r8, [r4, #61]	; 0x3d
 800311e:	695a      	ldr	r2, [r3, #20]
 8003120:	f012 0f02 	tst.w	r2, #2
 8003124:	681a      	ldr	r2, [r3, #0]
 8003126:	f442 7200 	orr.w	r2, r2, #512	; 0x200
 800312a:	601a      	str	r2, [r3, #0]
 800312c:	d025      	beq.n	800317a <HAL_I2C_IsDeviceReady+0x132>
 800312e:	2200      	movs	r2, #0
 8003130:	9203      	str	r2, [sp, #12]
 8003132:	695a      	ldr	r2, [r3, #20]
 8003134:	9203      	str	r2, [sp, #12]
 8003136:	699b      	ldr	r3, [r3, #24]
 8003138:	9303      	str	r3, [sp, #12]
 800313a:	9b03      	ldr	r3, [sp, #12]
 800313c:	4919      	ldr	r1, [pc, #100]	; (80031a4 <HAL_I2C_IsDeviceReady+0x15c>)
 800313e:	9500      	str	r5, [sp, #0]
 8003140:	2319      	movs	r3, #25
 8003142:	2201      	movs	r2, #1
 8003144:	4620      	mov	r0, r4
 8003146:	f7ff fc0c 	bl	8002962 <I2C_WaitOnFlagUntilTimeout>
 800314a:	b188      	cbz	r0, 8003170 <HAL_I2C_IsDeviceReady+0x128>
 800314c:	2001      	movs	r0, #1
 800314e:	e78a      	b.n	8003066 <HAL_I2C_IsDeviceReady+0x1e>
 8003150:	f7fe fe6a 	bl	8001e28 <HAL_GetTick>
 8003154:	1b40      	subs	r0, r0, r5
 8003156:	42b0      	cmp	r0, r6
 8003158:	d800      	bhi.n	800315c <HAL_I2C_IsDeviceReady+0x114>
 800315a:	b90e      	cbnz	r6, 8003160 <HAL_I2C_IsDeviceReady+0x118>
 800315c:	f884 803d 	strb.w	r8, [r4, #61]	; 0x3d
 8003160:	6823      	ldr	r3, [r4, #0]
 8003162:	695a      	ldr	r2, [r3, #20]
 8003164:	695b      	ldr	r3, [r3, #20]
 8003166:	f3c2 0240 	ubfx	r2, r2, #1, #1
 800316a:	f3c3 2380 	ubfx	r3, r3, #10, #1
 800316e:	e7cb      	b.n	8003108 <HAL_I2C_IsDeviceReady+0xc0>
 8003170:	f884 803d 	strb.w	r8, [r4, #61]	; 0x3d
 8003174:	f884 003c 	strb.w	r0, [r4, #60]	; 0x3c
 8003178:	e775      	b.n	8003066 <HAL_I2C_IsDeviceReady+0x1e>
 800317a:	f46f 6280 	mvn.w	r2, #1024	; 0x400
 800317e:	615a      	str	r2, [r3, #20]
 8003180:	4659      	mov	r1, fp
 8003182:	9500      	str	r5, [sp, #0]
 8003184:	2319      	movs	r3, #25
 8003186:	2201      	movs	r2, #1
 8003188:	4620      	mov	r0, r4
 800318a:	f7ff fbea 	bl	8002962 <I2C_WaitOnFlagUntilTimeout>
 800318e:	2800      	cmp	r0, #0
 8003190:	d1dc      	bne.n	800314c <HAL_I2C_IsDeviceReady+0x104>
 8003192:	f10a 0a01 	add.w	sl, sl, #1
 8003196:	45ca      	cmp	sl, r9
 8003198:	d392      	bcc.n	80030c0 <HAL_I2C_IsDeviceReady+0x78>
 800319a:	f884 803d 	strb.w	r8, [r4, #61]	; 0x3d
 800319e:	f884 003c 	strb.w	r0, [r4, #60]	; 0x3c
 80031a2:	e7d3      	b.n	800314c <HAL_I2C_IsDeviceReady+0x104>
 80031a4:	00100002 	.word	0x00100002

080031a8 <HAL_RCC_OscConfig>:
 80031a8:	e92d 41f3 	stmdb	sp!, {r0, r1, r4, r5, r6, r7, r8, lr}
 80031ac:	4604      	mov	r4, r0
 80031ae:	b340      	cbz	r0, 8003202 <HAL_RCC_OscConfig+0x5a>
 80031b0:	6803      	ldr	r3, [r0, #0]
 80031b2:	07dd      	lsls	r5, r3, #31
 80031b4:	d410      	bmi.n	80031d8 <HAL_RCC_OscConfig+0x30>
 80031b6:	6823      	ldr	r3, [r4, #0]
 80031b8:	0798      	lsls	r0, r3, #30
 80031ba:	d45e      	bmi.n	800327a <HAL_RCC_OscConfig+0xd2>
 80031bc:	6823      	ldr	r3, [r4, #0]
 80031be:	071a      	lsls	r2, r3, #28
 80031c0:	f100 80a0 	bmi.w	8003304 <HAL_RCC_OscConfig+0x15c>
 80031c4:	6823      	ldr	r3, [r4, #0]
 80031c6:	075b      	lsls	r3, r3, #29
 80031c8:	f100 80be 	bmi.w	8003348 <HAL_RCC_OscConfig+0x1a0>
 80031cc:	69a0      	ldr	r0, [r4, #24]
 80031ce:	2800      	cmp	r0, #0
 80031d0:	f040 811f 	bne.w	8003412 <HAL_RCC_OscConfig+0x26a>
 80031d4:	2000      	movs	r0, #0
 80031d6:	e02b      	b.n	8003230 <HAL_RCC_OscConfig+0x88>
 80031d8:	4ba6      	ldr	r3, [pc, #664]	; (8003474 <HAL_RCC_OscConfig+0x2cc>)
 80031da:	689a      	ldr	r2, [r3, #8]
 80031dc:	f002 020c 	and.w	r2, r2, #12
 80031e0:	2a04      	cmp	r2, #4
 80031e2:	d007      	beq.n	80031f4 <HAL_RCC_OscConfig+0x4c>
 80031e4:	689a      	ldr	r2, [r3, #8]
 80031e6:	f002 020c 	and.w	r2, r2, #12
 80031ea:	2a08      	cmp	r2, #8
 80031ec:	d10b      	bne.n	8003206 <HAL_RCC_OscConfig+0x5e>
 80031ee:	685a      	ldr	r2, [r3, #4]
 80031f0:	0251      	lsls	r1, r2, #9
 80031f2:	d508      	bpl.n	8003206 <HAL_RCC_OscConfig+0x5e>
 80031f4:	4b9f      	ldr	r3, [pc, #636]	; (8003474 <HAL_RCC_OscConfig+0x2cc>)
 80031f6:	681b      	ldr	r3, [r3, #0]
 80031f8:	039a      	lsls	r2, r3, #14
 80031fa:	d5dc      	bpl.n	80031b6 <HAL_RCC_OscConfig+0xe>
 80031fc:	6863      	ldr	r3, [r4, #4]
 80031fe:	2b00      	cmp	r3, #0
 8003200:	d1d9      	bne.n	80031b6 <HAL_RCC_OscConfig+0xe>
 8003202:	2001      	movs	r0, #1
 8003204:	e014      	b.n	8003230 <HAL_RCC_OscConfig+0x88>
 8003206:	6862      	ldr	r2, [r4, #4]
 8003208:	f5b2 3f80 	cmp.w	r2, #65536	; 0x10000
 800320c:	d113      	bne.n	8003236 <HAL_RCC_OscConfig+0x8e>
 800320e:	681a      	ldr	r2, [r3, #0]
 8003210:	f442 3280 	orr.w	r2, r2, #65536	; 0x10000
 8003214:	601a      	str	r2, [r3, #0]
 8003216:	f7fe fe07 	bl	8001e28 <HAL_GetTick>
 800321a:	4e96      	ldr	r6, [pc, #600]	; (8003474 <HAL_RCC_OscConfig+0x2cc>)
 800321c:	4605      	mov	r5, r0
 800321e:	6833      	ldr	r3, [r6, #0]
 8003220:	039b      	lsls	r3, r3, #14
 8003222:	d4c8      	bmi.n	80031b6 <HAL_RCC_OscConfig+0xe>
 8003224:	f7fe fe00 	bl	8001e28 <HAL_GetTick>
 8003228:	1b40      	subs	r0, r0, r5
 800322a:	2864      	cmp	r0, #100	; 0x64
 800322c:	d9f7      	bls.n	800321e <HAL_RCC_OscConfig+0x76>
 800322e:	2003      	movs	r0, #3
 8003230:	b002      	add	sp, #8
 8003232:	e8bd 81f0 	ldmia.w	sp!, {r4, r5, r6, r7, r8, pc}
 8003236:	4d8f      	ldr	r5, [pc, #572]	; (8003474 <HAL_RCC_OscConfig+0x2cc>)
 8003238:	f5b2 2fa0 	cmp.w	r2, #327680	; 0x50000
 800323c:	682b      	ldr	r3, [r5, #0]
 800323e:	d107      	bne.n	8003250 <HAL_RCC_OscConfig+0xa8>
 8003240:	f443 2380 	orr.w	r3, r3, #262144	; 0x40000
 8003244:	602b      	str	r3, [r5, #0]
 8003246:	682b      	ldr	r3, [r5, #0]
 8003248:	f443 3380 	orr.w	r3, r3, #65536	; 0x10000
 800324c:	602b      	str	r3, [r5, #0]
 800324e:	e7e2      	b.n	8003216 <HAL_RCC_OscConfig+0x6e>
 8003250:	f423 3380 	bic.w	r3, r3, #65536	; 0x10000
 8003254:	602b      	str	r3, [r5, #0]
 8003256:	682b      	ldr	r3, [r5, #0]
 8003258:	f423 2380 	bic.w	r3, r3, #262144	; 0x40000
 800325c:	602b      	str	r3, [r5, #0]
 800325e:	2a00      	cmp	r2, #0
 8003260:	d1d9      	bne.n	8003216 <HAL_RCC_OscConfig+0x6e>
 8003262:	f7fe fde1 	bl	8001e28 <HAL_GetTick>
 8003266:	4606      	mov	r6, r0
 8003268:	682b      	ldr	r3, [r5, #0]
 800326a:	039f      	lsls	r7, r3, #14
 800326c:	d5a3      	bpl.n	80031b6 <HAL_RCC_OscConfig+0xe>
 800326e:	f7fe fddb 	bl	8001e28 <HAL_GetTick>
 8003272:	1b80      	subs	r0, r0, r6
 8003274:	2864      	cmp	r0, #100	; 0x64
 8003276:	d9f7      	bls.n	8003268 <HAL_RCC_OscConfig+0xc0>
 8003278:	e7d9      	b.n	800322e <HAL_RCC_OscConfig+0x86>
 800327a:	4b7e      	ldr	r3, [pc, #504]	; (8003474 <HAL_RCC_OscConfig+0x2cc>)
 800327c:	689a      	ldr	r2, [r3, #8]
 800327e:	f012 0f0c 	tst.w	r2, #12
 8003282:	d007      	beq.n	8003294 <HAL_RCC_OscConfig+0xec>
 8003284:	689a      	ldr	r2, [r3, #8]
 8003286:	f002 020c 	and.w	r2, r2, #12
 800328a:	2a08      	cmp	r2, #8
 800328c:	d111      	bne.n	80032b2 <HAL_RCC_OscConfig+0x10a>
 800328e:	685b      	ldr	r3, [r3, #4]
 8003290:	025e      	lsls	r6, r3, #9
 8003292:	d40e      	bmi.n	80032b2 <HAL_RCC_OscConfig+0x10a>
 8003294:	4b77      	ldr	r3, [pc, #476]	; (8003474 <HAL_RCC_OscConfig+0x2cc>)
 8003296:	681a      	ldr	r2, [r3, #0]
 8003298:	0795      	lsls	r5, r2, #30
 800329a:	d502      	bpl.n	80032a2 <HAL_RCC_OscConfig+0xfa>
 800329c:	68e2      	ldr	r2, [r4, #12]
 800329e:	2a01      	cmp	r2, #1
 80032a0:	d1af      	bne.n	8003202 <HAL_RCC_OscConfig+0x5a>
 80032a2:	681a      	ldr	r2, [r3, #0]
 80032a4:	6921      	ldr	r1, [r4, #16]
 80032a6:	f022 02f8 	bic.w	r2, r2, #248	; 0xf8
 80032aa:	ea42 02c1 	orr.w	r2, r2, r1, lsl #3
 80032ae:	601a      	str	r2, [r3, #0]
 80032b0:	e784      	b.n	80031bc <HAL_RCC_OscConfig+0x14>
 80032b2:	68e2      	ldr	r2, [r4, #12]
 80032b4:	4b70      	ldr	r3, [pc, #448]	; (8003478 <HAL_RCC_OscConfig+0x2d0>)
 80032b6:	b1b2      	cbz	r2, 80032e6 <HAL_RCC_OscConfig+0x13e>
 80032b8:	2201      	movs	r2, #1
 80032ba:	601a      	str	r2, [r3, #0]
 80032bc:	f7fe fdb4 	bl	8001e28 <HAL_GetTick>
 80032c0:	4d6c      	ldr	r5, [pc, #432]	; (8003474 <HAL_RCC_OscConfig+0x2cc>)
 80032c2:	4606      	mov	r6, r0
 80032c4:	682b      	ldr	r3, [r5, #0]
 80032c6:	0798      	lsls	r0, r3, #30
 80032c8:	d507      	bpl.n	80032da <HAL_RCC_OscConfig+0x132>
 80032ca:	682b      	ldr	r3, [r5, #0]
 80032cc:	6922      	ldr	r2, [r4, #16]
 80032ce:	f023 03f8 	bic.w	r3, r3, #248	; 0xf8
 80032d2:	ea43 03c2 	orr.w	r3, r3, r2, lsl #3
 80032d6:	602b      	str	r3, [r5, #0]
 80032d8:	e770      	b.n	80031bc <HAL_RCC_OscConfig+0x14>
 80032da:	f7fe fda5 	bl	8001e28 <HAL_GetTick>
 80032de:	1b80      	subs	r0, r0, r6
 80032e0:	2802      	cmp	r0, #2
 80032e2:	d9ef      	bls.n	80032c4 <HAL_RCC_OscConfig+0x11c>
 80032e4:	e7a3      	b.n	800322e <HAL_RCC_OscConfig+0x86>
 80032e6:	601a      	str	r2, [r3, #0]
 80032e8:	f7fe fd9e 	bl	8001e28 <HAL_GetTick>
 80032ec:	4e61      	ldr	r6, [pc, #388]	; (8003474 <HAL_RCC_OscConfig+0x2cc>)
 80032ee:	4605      	mov	r5, r0
 80032f0:	6833      	ldr	r3, [r6, #0]
 80032f2:	0799      	lsls	r1, r3, #30
 80032f4:	f57f af62 	bpl.w	80031bc <HAL_RCC_OscConfig+0x14>
 80032f8:	f7fe fd96 	bl	8001e28 <HAL_GetTick>
 80032fc:	1b40      	subs	r0, r0, r5
 80032fe:	2802      	cmp	r0, #2
 8003300:	d9f6      	bls.n	80032f0 <HAL_RCC_OscConfig+0x148>
 8003302:	e794      	b.n	800322e <HAL_RCC_OscConfig+0x86>
 8003304:	6962      	ldr	r2, [r4, #20]
 8003306:	4b5d      	ldr	r3, [pc, #372]	; (800347c <HAL_RCC_OscConfig+0x2d4>)
 8003308:	b17a      	cbz	r2, 800332a <HAL_RCC_OscConfig+0x182>
 800330a:	2201      	movs	r2, #1
 800330c:	601a      	str	r2, [r3, #0]
 800330e:	f7fe fd8b 	bl	8001e28 <HAL_GetTick>
 8003312:	4e58      	ldr	r6, [pc, #352]	; (8003474 <HAL_RCC_OscConfig+0x2cc>)
 8003314:	4605      	mov	r5, r0
 8003316:	6f73      	ldr	r3, [r6, #116]	; 0x74
 8003318:	079f      	lsls	r7, r3, #30
 800331a:	f53f af53 	bmi.w	80031c4 <HAL_RCC_OscConfig+0x1c>
 800331e:	f7fe fd83 	bl	8001e28 <HAL_GetTick>
 8003322:	1b40      	subs	r0, r0, r5
 8003324:	2802      	cmp	r0, #2
 8003326:	d9f6      	bls.n	8003316 <HAL_RCC_OscConfig+0x16e>
 8003328:	e781      	b.n	800322e <HAL_RCC_OscConfig+0x86>
 800332a:	601a      	str	r2, [r3, #0]
 800332c:	f7fe fd7c 	bl	8001e28 <HAL_GetTick>
 8003330:	4e50      	ldr	r6, [pc, #320]	; (8003474 <HAL_RCC_OscConfig+0x2cc>)
 8003332:	4605      	mov	r5, r0
 8003334:	6f73      	ldr	r3, [r6, #116]	; 0x74
 8003336:	0798      	lsls	r0, r3, #30
 8003338:	f57f af44 	bpl.w	80031c4 <HAL_RCC_OscConfig+0x1c>
 800333c:	f7fe fd74 	bl	8001e28 <HAL_GetTick>
 8003340:	1b40      	subs	r0, r0, r5
 8003342:	2802      	cmp	r0, #2
 8003344:	d9f6      	bls.n	8003334 <HAL_RCC_OscConfig+0x18c>
 8003346:	e772      	b.n	800322e <HAL_RCC_OscConfig+0x86>
 8003348:	4b4a      	ldr	r3, [pc, #296]	; (8003474 <HAL_RCC_OscConfig+0x2cc>)
 800334a:	6c1a      	ldr	r2, [r3, #64]	; 0x40
 800334c:	f012 5280 	ands.w	r2, r2, #268435456	; 0x10000000
 8003350:	d128      	bne.n	80033a4 <HAL_RCC_OscConfig+0x1fc>
 8003352:	9201      	str	r2, [sp, #4]
 8003354:	6c1a      	ldr	r2, [r3, #64]	; 0x40
 8003356:	f042 5280 	orr.w	r2, r2, #268435456	; 0x10000000
 800335a:	641a      	str	r2, [r3, #64]	; 0x40
 800335c:	6c1b      	ldr	r3, [r3, #64]	; 0x40
 800335e:	f003 5380 	and.w	r3, r3, #268435456	; 0x10000000
 8003362:	9301      	str	r3, [sp, #4]
 8003364:	9b01      	ldr	r3, [sp, #4]
 8003366:	2701      	movs	r7, #1
 8003368:	4d45      	ldr	r5, [pc, #276]	; (8003480 <HAL_RCC_OscConfig+0x2d8>)
 800336a:	682b      	ldr	r3, [r5, #0]
 800336c:	05d9      	lsls	r1, r3, #23
 800336e:	d51b      	bpl.n	80033a8 <HAL_RCC_OscConfig+0x200>
 8003370:	68a3      	ldr	r3, [r4, #8]
 8003372:	4d40      	ldr	r5, [pc, #256]	; (8003474 <HAL_RCC_OscConfig+0x2cc>)
 8003374:	2b01      	cmp	r3, #1
 8003376:	d127      	bne.n	80033c8 <HAL_RCC_OscConfig+0x220>
 8003378:	6f2b      	ldr	r3, [r5, #112]	; 0x70
 800337a:	f043 0301 	orr.w	r3, r3, #1
 800337e:	672b      	str	r3, [r5, #112]	; 0x70
 8003380:	f7fe fd52 	bl	8001e28 <HAL_GetTick>
 8003384:	4e3b      	ldr	r6, [pc, #236]	; (8003474 <HAL_RCC_OscConfig+0x2cc>)
 8003386:	4605      	mov	r5, r0
 8003388:	f241 3888 	movw	r8, #5000	; 0x1388
 800338c:	6f33      	ldr	r3, [r6, #112]	; 0x70
 800338e:	079b      	lsls	r3, r3, #30
 8003390:	d539      	bpl.n	8003406 <HAL_RCC_OscConfig+0x25e>
 8003392:	2f00      	cmp	r7, #0
 8003394:	f43f af1a 	beq.w	80031cc <HAL_RCC_OscConfig+0x24>
 8003398:	4a36      	ldr	r2, [pc, #216]	; (8003474 <HAL_RCC_OscConfig+0x2cc>)
 800339a:	6c13      	ldr	r3, [r2, #64]	; 0x40
 800339c:	f023 5380 	bic.w	r3, r3, #268435456	; 0x10000000
 80033a0:	6413      	str	r3, [r2, #64]	; 0x40
 80033a2:	e713      	b.n	80031cc <HAL_RCC_OscConfig+0x24>
 80033a4:	2700      	movs	r7, #0
 80033a6:	e7df      	b.n	8003368 <HAL_RCC_OscConfig+0x1c0>
 80033a8:	682b      	ldr	r3, [r5, #0]
 80033aa:	f443 7380 	orr.w	r3, r3, #256	; 0x100
 80033ae:	602b      	str	r3, [r5, #0]
 80033b0:	f7fe fd3a 	bl	8001e28 <HAL_GetTick>
 80033b4:	4606      	mov	r6, r0
 80033b6:	682b      	ldr	r3, [r5, #0]
 80033b8:	05da      	lsls	r2, r3, #23
 80033ba:	d4d9      	bmi.n	8003370 <HAL_RCC_OscConfig+0x1c8>
 80033bc:	f7fe fd34 	bl	8001e28 <HAL_GetTick>
 80033c0:	1b80      	subs	r0, r0, r6
 80033c2:	2802      	cmp	r0, #2
 80033c4:	d9f7      	bls.n	80033b6 <HAL_RCC_OscConfig+0x20e>
 80033c6:	e732      	b.n	800322e <HAL_RCC_OscConfig+0x86>
 80033c8:	2b05      	cmp	r3, #5
 80033ca:	d104      	bne.n	80033d6 <HAL_RCC_OscConfig+0x22e>
 80033cc:	6f2b      	ldr	r3, [r5, #112]	; 0x70
 80033ce:	f043 0304 	orr.w	r3, r3, #4
 80033d2:	672b      	str	r3, [r5, #112]	; 0x70
 80033d4:	e7d0      	b.n	8003378 <HAL_RCC_OscConfig+0x1d0>
 80033d6:	6f2a      	ldr	r2, [r5, #112]	; 0x70
 80033d8:	f022 0201 	bic.w	r2, r2, #1
 80033dc:	672a      	str	r2, [r5, #112]	; 0x70
 80033de:	6f2a      	ldr	r2, [r5, #112]	; 0x70
 80033e0:	f022 0204 	bic.w	r2, r2, #4
 80033e4:	672a      	str	r2, [r5, #112]	; 0x70
 80033e6:	2b00      	cmp	r3, #0
 80033e8:	d1ca      	bne.n	8003380 <HAL_RCC_OscConfig+0x1d8>
 80033ea:	f7fe fd1d 	bl	8001e28 <HAL_GetTick>
 80033ee:	f241 3888 	movw	r8, #5000	; 0x1388
 80033f2:	4606      	mov	r6, r0
 80033f4:	6f2b      	ldr	r3, [r5, #112]	; 0x70
 80033f6:	0798      	lsls	r0, r3, #30
 80033f8:	d5cb      	bpl.n	8003392 <HAL_RCC_OscConfig+0x1ea>
 80033fa:	f7fe fd15 	bl	8001e28 <HAL_GetTick>
 80033fe:	1b80      	subs	r0, r0, r6
 8003400:	4540      	cmp	r0, r8
 8003402:	d9f7      	bls.n	80033f4 <HAL_RCC_OscConfig+0x24c>
 8003404:	e713      	b.n	800322e <HAL_RCC_OscConfig+0x86>
 8003406:	f7fe fd0f 	bl	8001e28 <HAL_GetTick>
 800340a:	1b40      	subs	r0, r0, r5
 800340c:	4540      	cmp	r0, r8
 800340e:	d9bd      	bls.n	800338c <HAL_RCC_OscConfig+0x1e4>
 8003410:	e70d      	b.n	800322e <HAL_RCC_OscConfig+0x86>
 8003412:	4d18      	ldr	r5, [pc, #96]	; (8003474 <HAL_RCC_OscConfig+0x2cc>)
 8003414:	68ab      	ldr	r3, [r5, #8]
 8003416:	f003 030c 	and.w	r3, r3, #12
 800341a:	2b08      	cmp	r3, #8
 800341c:	d047      	beq.n	80034ae <HAL_RCC_OscConfig+0x306>
 800341e:	4e19      	ldr	r6, [pc, #100]	; (8003484 <HAL_RCC_OscConfig+0x2dc>)
 8003420:	2300      	movs	r3, #0
 8003422:	2802      	cmp	r0, #2
 8003424:	6033      	str	r3, [r6, #0]
 8003426:	d135      	bne.n	8003494 <HAL_RCC_OscConfig+0x2ec>
 8003428:	f7fe fcfe 	bl	8001e28 <HAL_GetTick>
 800342c:	4607      	mov	r7, r0
 800342e:	682b      	ldr	r3, [r5, #0]
 8003430:	0199      	lsls	r1, r3, #6
 8003432:	d429      	bmi.n	8003488 <HAL_RCC_OscConfig+0x2e0>
 8003434:	e9d4 3207 	ldrd	r3, r2, [r4, #28]
 8003438:	4313      	orrs	r3, r2
 800343a:	6a62      	ldr	r2, [r4, #36]	; 0x24
 800343c:	ea43 1382 	orr.w	r3, r3, r2, lsl #6
 8003440:	6ae2      	ldr	r2, [r4, #44]	; 0x2c
 8003442:	ea43 6302 	orr.w	r3, r3, r2, lsl #24
 8003446:	6aa2      	ldr	r2, [r4, #40]	; 0x28
 8003448:	0852      	lsrs	r2, r2, #1
 800344a:	3a01      	subs	r2, #1
 800344c:	ea43 4302 	orr.w	r3, r3, r2, lsl #16
 8003450:	606b      	str	r3, [r5, #4]
 8003452:	2301      	movs	r3, #1
 8003454:	6033      	str	r3, [r6, #0]
 8003456:	f7fe fce7 	bl	8001e28 <HAL_GetTick>
 800345a:	4d06      	ldr	r5, [pc, #24]	; (8003474 <HAL_RCC_OscConfig+0x2cc>)
 800345c:	4604      	mov	r4, r0
 800345e:	682b      	ldr	r3, [r5, #0]
 8003460:	019a      	lsls	r2, r3, #6
 8003462:	f53f aeb7 	bmi.w	80031d4 <HAL_RCC_OscConfig+0x2c>
 8003466:	f7fe fcdf 	bl	8001e28 <HAL_GetTick>
 800346a:	1b00      	subs	r0, r0, r4
 800346c:	2802      	cmp	r0, #2
 800346e:	d9f6      	bls.n	800345e <HAL_RCC_OscConfig+0x2b6>
 8003470:	e6dd      	b.n	800322e <HAL_RCC_OscConfig+0x86>
 8003472:	bf00      	nop
 8003474:	40023800 	.word	0x40023800
 8003478:	42470000 	.word	0x42470000
 800347c:	42470e80 	.word	0x42470e80
 8003480:	40007000 	.word	0x40007000
 8003484:	42470060 	.word	0x42470060
 8003488:	f7fe fcce 	bl	8001e28 <HAL_GetTick>
 800348c:	1bc0      	subs	r0, r0, r7
 800348e:	2802      	cmp	r0, #2
 8003490:	d9cd      	bls.n	800342e <HAL_RCC_OscConfig+0x286>
 8003492:	e6cc      	b.n	800322e <HAL_RCC_OscConfig+0x86>
 8003494:	f7fe fcc8 	bl	8001e28 <HAL_GetTick>
 8003498:	4604      	mov	r4, r0
 800349a:	682b      	ldr	r3, [r5, #0]
 800349c:	019b      	lsls	r3, r3, #6
 800349e:	f57f ae99 	bpl.w	80031d4 <HAL_RCC_OscConfig+0x2c>
 80034a2:	f7fe fcc1 	bl	8001e28 <HAL_GetTick>
 80034a6:	1b00      	subs	r0, r0, r4
 80034a8:	2802      	cmp	r0, #2
 80034aa:	d9f6      	bls.n	800349a <HAL_RCC_OscConfig+0x2f2>
 80034ac:	e6bf      	b.n	800322e <HAL_RCC_OscConfig+0x86>
 80034ae:	2801      	cmp	r0, #1
 80034b0:	f43f aebe 	beq.w	8003230 <HAL_RCC_OscConfig+0x88>
 80034b4:	686b      	ldr	r3, [r5, #4]
 80034b6:	69e2      	ldr	r2, [r4, #28]
 80034b8:	f403 0180 	and.w	r1, r3, #4194304	; 0x400000
 80034bc:	4291      	cmp	r1, r2
 80034be:	f47f aea0 	bne.w	8003202 <HAL_RCC_OscConfig+0x5a>
 80034c2:	6a21      	ldr	r1, [r4, #32]
 80034c4:	f003 023f 	and.w	r2, r3, #63	; 0x3f
 80034c8:	428a      	cmp	r2, r1
 80034ca:	f47f ae9a 	bne.w	8003202 <HAL_RCC_OscConfig+0x5a>
 80034ce:	6a61      	ldr	r1, [r4, #36]	; 0x24
 80034d0:	f647 72c0 	movw	r2, #32704	; 0x7fc0
 80034d4:	401a      	ands	r2, r3
 80034d6:	ebb2 1f81 	cmp.w	r2, r1, lsl #6
 80034da:	f47f ae92 	bne.w	8003202 <HAL_RCC_OscConfig+0x5a>
 80034de:	6aa2      	ldr	r2, [r4, #40]	; 0x28
 80034e0:	0852      	lsrs	r2, r2, #1
 80034e2:	f403 3140 	and.w	r1, r3, #196608	; 0x30000
 80034e6:	3a01      	subs	r2, #1
 80034e8:	ebb1 4f02 	cmp.w	r1, r2, lsl #16
 80034ec:	f47f ae89 	bne.w	8003202 <HAL_RCC_OscConfig+0x5a>
 80034f0:	6ae2      	ldr	r2, [r4, #44]	; 0x2c
 80034f2:	f003 6370 	and.w	r3, r3, #251658240	; 0xf000000
 80034f6:	ebb3 6f02 	cmp.w	r3, r2, lsl #24
 80034fa:	f43f ae6b 	beq.w	80031d4 <HAL_RCC_OscConfig+0x2c>
 80034fe:	e680      	b.n	8003202 <HAL_RCC_OscConfig+0x5a>

08003500 <HAL_RCC_GetSysClockFreq>:
 8003500:	4913      	ldr	r1, [pc, #76]	; (8003550 <HAL_RCC_GetSysClockFreq+0x50>)
 8003502:	b508      	push	{r3, lr}
 8003504:	688b      	ldr	r3, [r1, #8]
 8003506:	f003 030c 	and.w	r3, r3, #12
 800350a:	2b04      	cmp	r3, #4
 800350c:	d01c      	beq.n	8003548 <HAL_RCC_GetSysClockFreq+0x48>
 800350e:	2b08      	cmp	r3, #8
 8003510:	d11c      	bne.n	800354c <HAL_RCC_GetSysClockFreq+0x4c>
 8003512:	684a      	ldr	r2, [r1, #4]
 8003514:	684b      	ldr	r3, [r1, #4]
 8003516:	6849      	ldr	r1, [r1, #4]
 8003518:	f413 0380 	ands.w	r3, r3, #4194304	; 0x400000
 800351c:	bf14      	ite	ne
 800351e:	480d      	ldrne	r0, [pc, #52]	; (8003554 <HAL_RCC_GetSysClockFreq+0x54>)
 8003520:	480d      	ldreq	r0, [pc, #52]	; (8003558 <HAL_RCC_GetSysClockFreq+0x58>)
 8003522:	f3c1 1188 	ubfx	r1, r1, #6, #9
 8003526:	bf18      	it	ne
 8003528:	2300      	movne	r3, #0
 800352a:	f002 023f 	and.w	r2, r2, #63	; 0x3f
 800352e:	fba1 0100 	umull	r0, r1, r1, r0
 8003532:	f7fd fb0d 	bl	8000b50 <__aeabi_uldivmod>
 8003536:	4b06      	ldr	r3, [pc, #24]	; (8003550 <HAL_RCC_GetSysClockFreq+0x50>)
 8003538:	685b      	ldr	r3, [r3, #4]
 800353a:	f3c3 4301 	ubfx	r3, r3, #16, #2
 800353e:	3301      	adds	r3, #1
 8003540:	005b      	lsls	r3, r3, #1
 8003542:	fbb0 f0f3 	udiv	r0, r0, r3
 8003546:	bd08      	pop	{r3, pc}
 8003548:	4802      	ldr	r0, [pc, #8]	; (8003554 <HAL_RCC_GetSysClockFreq+0x54>)
 800354a:	e7fc      	b.n	8003546 <HAL_RCC_GetSysClockFreq+0x46>
 800354c:	4802      	ldr	r0, [pc, #8]	; (8003558 <HAL_RCC_GetSysClockFreq+0x58>)
 800354e:	e7fa      	b.n	8003546 <HAL_RCC_GetSysClockFreq+0x46>
 8003550:	40023800 	.word	0x40023800
 8003554:	017d7840 	.word	0x017d7840
 8003558:	00f42400 	.word	0x00f42400

0800355c <HAL_RCC_ClockConfig>:
 800355c:	e92d 41f0 	stmdb	sp!, {r4, r5, r6, r7, r8, lr}
 8003560:	460d      	mov	r5, r1
 8003562:	4604      	mov	r4, r0
 8003564:	b910      	cbnz	r0, 800356c <HAL_RCC_ClockConfig+0x10>
 8003566:	2001      	movs	r0, #1
 8003568:	e8bd 81f0 	ldmia.w	sp!, {r4, r5, r6, r7, r8, pc}
 800356c:	4b44      	ldr	r3, [pc, #272]	; (8003680 <HAL_RCC_ClockConfig+0x124>)
 800356e:	681a      	ldr	r2, [r3, #0]
 8003570:	f002 0207 	and.w	r2, r2, #7
 8003574:	428a      	cmp	r2, r1
 8003576:	d328      	bcc.n	80035ca <HAL_RCC_ClockConfig+0x6e>
 8003578:	6822      	ldr	r2, [r4, #0]
 800357a:	0797      	lsls	r7, r2, #30
 800357c:	d42d      	bmi.n	80035da <HAL_RCC_ClockConfig+0x7e>
 800357e:	07d0      	lsls	r0, r2, #31
 8003580:	d441      	bmi.n	8003606 <HAL_RCC_ClockConfig+0xaa>
 8003582:	4b3f      	ldr	r3, [pc, #252]	; (8003680 <HAL_RCC_ClockConfig+0x124>)
 8003584:	681a      	ldr	r2, [r3, #0]
 8003586:	f002 0207 	and.w	r2, r2, #7
 800358a:	42aa      	cmp	r2, r5
 800358c:	d866      	bhi.n	800365c <HAL_RCC_ClockConfig+0x100>
 800358e:	6822      	ldr	r2, [r4, #0]
 8003590:	0751      	lsls	r1, r2, #29
 8003592:	d46c      	bmi.n	800366e <HAL_RCC_ClockConfig+0x112>
 8003594:	0713      	lsls	r3, r2, #28
 8003596:	d507      	bpl.n	80035a8 <HAL_RCC_ClockConfig+0x4c>
 8003598:	4a3a      	ldr	r2, [pc, #232]	; (8003684 <HAL_RCC_ClockConfig+0x128>)
 800359a:	6921      	ldr	r1, [r4, #16]
 800359c:	6893      	ldr	r3, [r2, #8]
 800359e:	f423 4360 	bic.w	r3, r3, #57344	; 0xe000
 80035a2:	ea43 03c1 	orr.w	r3, r3, r1, lsl #3
 80035a6:	6093      	str	r3, [r2, #8]
 80035a8:	f7ff ffaa 	bl	8003500 <HAL_RCC_GetSysClockFreq>
 80035ac:	4b35      	ldr	r3, [pc, #212]	; (8003684 <HAL_RCC_ClockConfig+0x128>)
 80035ae:	4a36      	ldr	r2, [pc, #216]	; (8003688 <HAL_RCC_ClockConfig+0x12c>)
 80035b0:	689b      	ldr	r3, [r3, #8]
 80035b2:	f3c3 1303 	ubfx	r3, r3, #4, #4
 80035b6:	5cd3      	ldrb	r3, [r2, r3]
 80035b8:	40d8      	lsrs	r0, r3
 80035ba:	4b34      	ldr	r3, [pc, #208]	; (800368c <HAL_RCC_ClockConfig+0x130>)
 80035bc:	6018      	str	r0, [r3, #0]
 80035be:	4b34      	ldr	r3, [pc, #208]	; (8003690 <HAL_RCC_ClockConfig+0x134>)
 80035c0:	6818      	ldr	r0, [r3, #0]
 80035c2:	f7fe fbe7 	bl	8001d94 <HAL_InitTick>
 80035c6:	2000      	movs	r0, #0
 80035c8:	e7ce      	b.n	8003568 <HAL_RCC_ClockConfig+0xc>
 80035ca:	b2ca      	uxtb	r2, r1
 80035cc:	701a      	strb	r2, [r3, #0]
 80035ce:	681b      	ldr	r3, [r3, #0]
 80035d0:	f003 0307 	and.w	r3, r3, #7
 80035d4:	428b      	cmp	r3, r1
 80035d6:	d1c6      	bne.n	8003566 <HAL_RCC_ClockConfig+0xa>
 80035d8:	e7ce      	b.n	8003578 <HAL_RCC_ClockConfig+0x1c>
 80035da:	4b2a      	ldr	r3, [pc, #168]	; (8003684 <HAL_RCC_ClockConfig+0x128>)
 80035dc:	f012 0f04 	tst.w	r2, #4
 80035e0:	bf1e      	ittt	ne
 80035e2:	6899      	ldrne	r1, [r3, #8]
 80035e4:	f441 51e0 	orrne.w	r1, r1, #7168	; 0x1c00
 80035e8:	6099      	strne	r1, [r3, #8]
 80035ea:	0716      	lsls	r6, r2, #28
 80035ec:	bf42      	ittt	mi
 80035ee:	6899      	ldrmi	r1, [r3, #8]
 80035f0:	f441 4160 	orrmi.w	r1, r1, #57344	; 0xe000
 80035f4:	6099      	strmi	r1, [r3, #8]
 80035f6:	4923      	ldr	r1, [pc, #140]	; (8003684 <HAL_RCC_ClockConfig+0x128>)
 80035f8:	68a0      	ldr	r0, [r4, #8]
 80035fa:	688b      	ldr	r3, [r1, #8]
 80035fc:	f023 03f0 	bic.w	r3, r3, #240	; 0xf0
 8003600:	4303      	orrs	r3, r0
 8003602:	608b      	str	r3, [r1, #8]
 8003604:	e7bb      	b.n	800357e <HAL_RCC_ClockConfig+0x22>
 8003606:	6862      	ldr	r2, [r4, #4]
 8003608:	4b1e      	ldr	r3, [pc, #120]	; (8003684 <HAL_RCC_ClockConfig+0x128>)
 800360a:	2a01      	cmp	r2, #1
 800360c:	d11c      	bne.n	8003648 <HAL_RCC_ClockConfig+0xec>
 800360e:	681b      	ldr	r3, [r3, #0]
 8003610:	f413 3f00 	tst.w	r3, #131072	; 0x20000
 8003614:	d0a7      	beq.n	8003566 <HAL_RCC_ClockConfig+0xa>
 8003616:	4e1b      	ldr	r6, [pc, #108]	; (8003684 <HAL_RCC_ClockConfig+0x128>)
 8003618:	68b3      	ldr	r3, [r6, #8]
 800361a:	f023 0303 	bic.w	r3, r3, #3
 800361e:	4313      	orrs	r3, r2
 8003620:	60b3      	str	r3, [r6, #8]
 8003622:	f7fe fc01 	bl	8001e28 <HAL_GetTick>
 8003626:	f241 3888 	movw	r8, #5000	; 0x1388
 800362a:	4607      	mov	r7, r0
 800362c:	68b3      	ldr	r3, [r6, #8]
 800362e:	6862      	ldr	r2, [r4, #4]
 8003630:	f003 030c 	and.w	r3, r3, #12
 8003634:	ebb3 0f82 	cmp.w	r3, r2, lsl #2
 8003638:	d0a3      	beq.n	8003582 <HAL_RCC_ClockConfig+0x26>
 800363a:	f7fe fbf5 	bl	8001e28 <HAL_GetTick>
 800363e:	1bc0      	subs	r0, r0, r7
 8003640:	4540      	cmp	r0, r8
 8003642:	d9f3      	bls.n	800362c <HAL_RCC_ClockConfig+0xd0>
 8003644:	2003      	movs	r0, #3
 8003646:	e78f      	b.n	8003568 <HAL_RCC_ClockConfig+0xc>
 8003648:	1e91      	subs	r1, r2, #2
 800364a:	2901      	cmp	r1, #1
 800364c:	681b      	ldr	r3, [r3, #0]
 800364e:	d802      	bhi.n	8003656 <HAL_RCC_ClockConfig+0xfa>
 8003650:	f013 7f00 	tst.w	r3, #33554432	; 0x2000000
 8003654:	e7de      	b.n	8003614 <HAL_RCC_ClockConfig+0xb8>
 8003656:	f013 0f02 	tst.w	r3, #2
 800365a:	e7db      	b.n	8003614 <HAL_RCC_ClockConfig+0xb8>
 800365c:	b2ea      	uxtb	r2, r5
 800365e:	701a      	strb	r2, [r3, #0]
 8003660:	681b      	ldr	r3, [r3, #0]
 8003662:	f003 0307 	and.w	r3, r3, #7
 8003666:	42ab      	cmp	r3, r5
 8003668:	f47f af7d 	bne.w	8003566 <HAL_RCC_ClockConfig+0xa>
 800366c:	e78f      	b.n	800358e <HAL_RCC_ClockConfig+0x32>
 800366e:	4905      	ldr	r1, [pc, #20]	; (8003684 <HAL_RCC_ClockConfig+0x128>)
 8003670:	68e0      	ldr	r0, [r4, #12]
 8003672:	688b      	ldr	r3, [r1, #8]
 8003674:	f423 53e0 	bic.w	r3, r3, #7168	; 0x1c00
 8003678:	4303      	orrs	r3, r0
 800367a:	608b      	str	r3, [r1, #8]
 800367c:	e78a      	b.n	8003594 <HAL_RCC_ClockConfig+0x38>
 800367e:	bf00      	nop
 8003680:	40023c00 	.word	0x40023c00
 8003684:	40023800 	.word	0x40023800
 8003688:	080044d8 	.word	0x080044d8
 800368c:	20000004 	.word	0x20000004
 8003690:	2000000c 	.word	0x2000000c

08003694 <HAL_RCC_GetPCLK1Freq>:
 8003694:	4b04      	ldr	r3, [pc, #16]	; (80036a8 <HAL_RCC_GetPCLK1Freq+0x14>)
 8003696:	4a05      	ldr	r2, [pc, #20]	; (80036ac <HAL_RCC_GetPCLK1Freq+0x18>)
 8003698:	689b      	ldr	r3, [r3, #8]
 800369a:	f3c3 2382 	ubfx	r3, r3, #10, #3
 800369e:	5cd3      	ldrb	r3, [r2, r3]
 80036a0:	4a03      	ldr	r2, [pc, #12]	; (80036b0 <HAL_RCC_GetPCLK1Freq+0x1c>)
 80036a2:	6810      	ldr	r0, [r2, #0]
 80036a4:	40d8      	lsrs	r0, r3
 80036a6:	4770      	bx	lr
 80036a8:	40023800 	.word	0x40023800
 80036ac:	080044e8 	.word	0x080044e8
 80036b0:	20000004 	.word	0x20000004

080036b4 <TIM_OC1_SetConfig>:
 80036b4:	6a03      	ldr	r3, [r0, #32]
 80036b6:	f023 0301 	bic.w	r3, r3, #1
 80036ba:	6203      	str	r3, [r0, #32]
 80036bc:	6a03      	ldr	r3, [r0, #32]
 80036be:	b570      	push	{r4, r5, r6, lr}
 80036c0:	6844      	ldr	r4, [r0, #4]
 80036c2:	6982      	ldr	r2, [r0, #24]
 80036c4:	680d      	ldr	r5, [r1, #0]
 80036c6:	f022 0273 	bic.w	r2, r2, #115	; 0x73
 80036ca:	432a      	orrs	r2, r5
 80036cc:	688d      	ldr	r5, [r1, #8]
 80036ce:	f023 0302 	bic.w	r3, r3, #2
 80036d2:	432b      	orrs	r3, r5
 80036d4:	4d0a      	ldr	r5, [pc, #40]	; (8003700 <TIM_OC1_SetConfig+0x4c>)
 80036d6:	42a8      	cmp	r0, r5
 80036d8:	d10b      	bne.n	80036f2 <TIM_OC1_SetConfig+0x3e>
 80036da:	68cd      	ldr	r5, [r1, #12]
 80036dc:	f023 0308 	bic.w	r3, r3, #8
 80036e0:	432b      	orrs	r3, r5
 80036e2:	e9d1 5605 	ldrd	r5, r6, [r1, #20]
 80036e6:	f424 7440 	bic.w	r4, r4, #768	; 0x300
 80036ea:	4335      	orrs	r5, r6
 80036ec:	f023 0304 	bic.w	r3, r3, #4
 80036f0:	432c      	orrs	r4, r5
 80036f2:	6044      	str	r4, [r0, #4]
 80036f4:	6182      	str	r2, [r0, #24]
 80036f6:	684a      	ldr	r2, [r1, #4]
 80036f8:	6342      	str	r2, [r0, #52]	; 0x34
 80036fa:	6203      	str	r3, [r0, #32]
 80036fc:	bd70      	pop	{r4, r5, r6, pc}
 80036fe:	bf00      	nop
 8003700:	40010000 	.word	0x40010000

08003704 <TIM_OC3_SetConfig>:
 8003704:	6a03      	ldr	r3, [r0, #32]
 8003706:	f423 7380 	bic.w	r3, r3, #256	; 0x100
 800370a:	6203      	str	r3, [r0, #32]
 800370c:	6a03      	ldr	r3, [r0, #32]
 800370e:	b570      	push	{r4, r5, r6, lr}
 8003710:	6844      	ldr	r4, [r0, #4]
 8003712:	69c2      	ldr	r2, [r0, #28]
 8003714:	680d      	ldr	r5, [r1, #0]
 8003716:	f022 0273 	bic.w	r2, r2, #115	; 0x73
 800371a:	432a      	orrs	r2, r5
 800371c:	688d      	ldr	r5, [r1, #8]
 800371e:	f423 7300 	bic.w	r3, r3, #512	; 0x200
 8003722:	ea43 2305 	orr.w	r3, r3, r5, lsl #8
 8003726:	4d0b      	ldr	r5, [pc, #44]	; (8003754 <TIM_OC3_SetConfig+0x50>)
 8003728:	42a8      	cmp	r0, r5
 800372a:	d10d      	bne.n	8003748 <TIM_OC3_SetConfig+0x44>
 800372c:	68cd      	ldr	r5, [r1, #12]
 800372e:	f423 6300 	bic.w	r3, r3, #2048	; 0x800
 8003732:	ea43 2305 	orr.w	r3, r3, r5, lsl #8
 8003736:	e9d1 5605 	ldrd	r5, r6, [r1, #20]
 800373a:	f424 5440 	bic.w	r4, r4, #12288	; 0x3000
 800373e:	4335      	orrs	r5, r6
 8003740:	f423 6380 	bic.w	r3, r3, #1024	; 0x400
 8003744:	ea44 1405 	orr.w	r4, r4, r5, lsl #4
 8003748:	6044      	str	r4, [r0, #4]
 800374a:	61c2      	str	r2, [r0, #28]
 800374c:	684a      	ldr	r2, [r1, #4]
 800374e:	63c2      	str	r2, [r0, #60]	; 0x3c
 8003750:	6203      	str	r3, [r0, #32]
 8003752:	bd70      	pop	{r4, r5, r6, pc}
 8003754:	40010000 	.word	0x40010000

08003758 <TIM_OC4_SetConfig>:
 8003758:	6a03      	ldr	r3, [r0, #32]
 800375a:	f423 5380 	bic.w	r3, r3, #4096	; 0x1000
 800375e:	6203      	str	r3, [r0, #32]
 8003760:	6a03      	ldr	r3, [r0, #32]
 8003762:	b530      	push	{r4, r5, lr}
 8003764:	6844      	ldr	r4, [r0, #4]
 8003766:	69c2      	ldr	r2, [r0, #28]
 8003768:	680d      	ldr	r5, [r1, #0]
 800376a:	f422 42e6 	bic.w	r2, r2, #29440	; 0x7300
 800376e:	ea42 2205 	orr.w	r2, r2, r5, lsl #8
 8003772:	688d      	ldr	r5, [r1, #8]
 8003774:	f423 5300 	bic.w	r3, r3, #8192	; 0x2000
 8003778:	ea43 3305 	orr.w	r3, r3, r5, lsl #12
 800377c:	4d06      	ldr	r5, [pc, #24]	; (8003798 <TIM_OC4_SetConfig+0x40>)
 800377e:	42a8      	cmp	r0, r5
 8003780:	bf02      	ittt	eq
 8003782:	694d      	ldreq	r5, [r1, #20]
 8003784:	f424 4480 	biceq.w	r4, r4, #16384	; 0x4000
 8003788:	ea44 1485 	orreq.w	r4, r4, r5, lsl #6
 800378c:	6044      	str	r4, [r0, #4]
 800378e:	61c2      	str	r2, [r0, #28]
 8003790:	684a      	ldr	r2, [r1, #4]
 8003792:	6402      	str	r2, [r0, #64]	; 0x40
 8003794:	6203      	str	r3, [r0, #32]
 8003796:	bd30      	pop	{r4, r5, pc}
 8003798:	40010000 	.word	0x40010000

0800379c <HAL_TIM_Base_Start_IT>:
 800379c:	f890 303d 	ldrb.w	r3, [r0, #61]	; 0x3d
 80037a0:	2b01      	cmp	r3, #1
 80037a2:	d128      	bne.n	80037f6 <HAL_TIM_Base_Start_IT+0x5a>
 80037a4:	2302      	movs	r3, #2
 80037a6:	f880 303d 	strb.w	r3, [r0, #61]	; 0x3d
 80037aa:	6803      	ldr	r3, [r0, #0]
 80037ac:	68da      	ldr	r2, [r3, #12]
 80037ae:	f042 0201 	orr.w	r2, r2, #1
 80037b2:	60da      	str	r2, [r3, #12]
 80037b4:	4a11      	ldr	r2, [pc, #68]	; (80037fc <HAL_TIM_Base_Start_IT+0x60>)
 80037b6:	4293      	cmp	r3, r2
 80037b8:	d012      	beq.n	80037e0 <HAL_TIM_Base_Start_IT+0x44>
 80037ba:	f1b3 4f80 	cmp.w	r3, #1073741824	; 0x40000000
 80037be:	d00f      	beq.n	80037e0 <HAL_TIM_Base_Start_IT+0x44>
 80037c0:	f5a2 427c 	sub.w	r2, r2, #64512	; 0xfc00
 80037c4:	4293      	cmp	r3, r2
 80037c6:	d00b      	beq.n	80037e0 <HAL_TIM_Base_Start_IT+0x44>
 80037c8:	f502 6280 	add.w	r2, r2, #1024	; 0x400
 80037cc:	4293      	cmp	r3, r2
 80037ce:	d007      	beq.n	80037e0 <HAL_TIM_Base_Start_IT+0x44>
 80037d0:	f502 6280 	add.w	r2, r2, #1024	; 0x400
 80037d4:	4293      	cmp	r3, r2
 80037d6:	d003      	beq.n	80037e0 <HAL_TIM_Base_Start_IT+0x44>
 80037d8:	f502 329a 	add.w	r2, r2, #78848	; 0x13400
 80037dc:	4293      	cmp	r3, r2
 80037de:	d104      	bne.n	80037ea <HAL_TIM_Base_Start_IT+0x4e>
 80037e0:	689a      	ldr	r2, [r3, #8]
 80037e2:	f002 0207 	and.w	r2, r2, #7
 80037e6:	2a06      	cmp	r2, #6
 80037e8:	d003      	beq.n	80037f2 <HAL_TIM_Base_Start_IT+0x56>
 80037ea:	681a      	ldr	r2, [r3, #0]
 80037ec:	f042 0201 	orr.w	r2, r2, #1
 80037f0:	601a      	str	r2, [r3, #0]
 80037f2:	2000      	movs	r0, #0
 80037f4:	4770      	bx	lr
 80037f6:	2001      	movs	r0, #1
 80037f8:	4770      	bx	lr
 80037fa:	bf00      	nop
 80037fc:	40010000 	.word	0x40010000

08003800 <HAL_TIM_PWM_MspInit>:
 8003800:	4770      	bx	lr

08003802 <HAL_TIM_OC_DelayElapsedCallback>:
 8003802:	4770      	bx	lr

08003804 <HAL_TIM_IC_CaptureCallback>:
 8003804:	4770      	bx	lr

08003806 <HAL_TIM_PWM_PulseFinishedCallback>:
 8003806:	4770      	bx	lr

08003808 <HAL_TIM_TriggerCallback>:
 8003808:	4770      	bx	lr

0800380a <HAL_TIM_IRQHandler>:
 800380a:	6803      	ldr	r3, [r0, #0]
 800380c:	691a      	ldr	r2, [r3, #16]
 800380e:	0791      	lsls	r1, r2, #30
 8003810:	b510      	push	{r4, lr}
 8003812:	4604      	mov	r4, r0
 8003814:	d50e      	bpl.n	8003834 <HAL_TIM_IRQHandler+0x2a>
 8003816:	68da      	ldr	r2, [r3, #12]
 8003818:	0792      	lsls	r2, r2, #30
 800381a:	d50b      	bpl.n	8003834 <HAL_TIM_IRQHandler+0x2a>
 800381c:	f06f 0202 	mvn.w	r2, #2
 8003820:	611a      	str	r2, [r3, #16]
 8003822:	2201      	movs	r2, #1
 8003824:	7702      	strb	r2, [r0, #28]
 8003826:	699b      	ldr	r3, [r3, #24]
 8003828:	079b      	lsls	r3, r3, #30
 800382a:	d077      	beq.n	800391c <HAL_TIM_IRQHandler+0x112>
 800382c:	f7ff ffea 	bl	8003804 <HAL_TIM_IC_CaptureCallback>
 8003830:	2300      	movs	r3, #0
 8003832:	7723      	strb	r3, [r4, #28]
 8003834:	6823      	ldr	r3, [r4, #0]
 8003836:	691a      	ldr	r2, [r3, #16]
 8003838:	0750      	lsls	r0, r2, #29
 800383a:	d510      	bpl.n	800385e <HAL_TIM_IRQHandler+0x54>
 800383c:	68da      	ldr	r2, [r3, #12]
 800383e:	0751      	lsls	r1, r2, #29
 8003840:	d50d      	bpl.n	800385e <HAL_TIM_IRQHandler+0x54>
 8003842:	f06f 0204 	mvn.w	r2, #4
 8003846:	611a      	str	r2, [r3, #16]
 8003848:	2202      	movs	r2, #2
 800384a:	7722      	strb	r2, [r4, #28]
 800384c:	699b      	ldr	r3, [r3, #24]
 800384e:	f413 7f40 	tst.w	r3, #768	; 0x300
 8003852:	4620      	mov	r0, r4
 8003854:	d068      	beq.n	8003928 <HAL_TIM_IRQHandler+0x11e>
 8003856:	f7ff ffd5 	bl	8003804 <HAL_TIM_IC_CaptureCallback>
 800385a:	2300      	movs	r3, #0
 800385c:	7723      	strb	r3, [r4, #28]
 800385e:	6823      	ldr	r3, [r4, #0]
 8003860:	691a      	ldr	r2, [r3, #16]
 8003862:	0712      	lsls	r2, r2, #28
 8003864:	d50f      	bpl.n	8003886 <HAL_TIM_IRQHandler+0x7c>
 8003866:	68da      	ldr	r2, [r3, #12]
 8003868:	0710      	lsls	r0, r2, #28
 800386a:	d50c      	bpl.n	8003886 <HAL_TIM_IRQHandler+0x7c>
 800386c:	f06f 0208 	mvn.w	r2, #8
 8003870:	611a      	str	r2, [r3, #16]
 8003872:	2204      	movs	r2, #4
 8003874:	7722      	strb	r2, [r4, #28]
 8003876:	69db      	ldr	r3, [r3, #28]
 8003878:	0799      	lsls	r1, r3, #30
 800387a:	4620      	mov	r0, r4
 800387c:	d05a      	beq.n	8003934 <HAL_TIM_IRQHandler+0x12a>
 800387e:	f7ff ffc1 	bl	8003804 <HAL_TIM_IC_CaptureCallback>
 8003882:	2300      	movs	r3, #0
 8003884:	7723      	strb	r3, [r4, #28]
 8003886:	6823      	ldr	r3, [r4, #0]
 8003888:	691a      	ldr	r2, [r3, #16]
 800388a:	06d2      	lsls	r2, r2, #27
 800388c:	d510      	bpl.n	80038b0 <HAL_TIM_IRQHandler+0xa6>
 800388e:	68da      	ldr	r2, [r3, #12]
 8003890:	06d0      	lsls	r0, r2, #27
 8003892:	d50d      	bpl.n	80038b0 <HAL_TIM_IRQHandler+0xa6>
 8003894:	f06f 0210 	mvn.w	r2, #16
 8003898:	611a      	str	r2, [r3, #16]
 800389a:	2208      	movs	r2, #8
 800389c:	7722      	strb	r2, [r4, #28]
 800389e:	69db      	ldr	r3, [r3, #28]
 80038a0:	f413 7f40 	tst.w	r3, #768	; 0x300
 80038a4:	4620      	mov	r0, r4
 80038a6:	d04b      	beq.n	8003940 <HAL_TIM_IRQHandler+0x136>
 80038a8:	f7ff ffac 	bl	8003804 <HAL_TIM_IC_CaptureCallback>
 80038ac:	2300      	movs	r3, #0
 80038ae:	7723      	strb	r3, [r4, #28]
 80038b0:	6823      	ldr	r3, [r4, #0]
 80038b2:	691a      	ldr	r2, [r3, #16]
 80038b4:	07d1      	lsls	r1, r2, #31
 80038b6:	d508      	bpl.n	80038ca <HAL_TIM_IRQHandler+0xc0>
 80038b8:	68da      	ldr	r2, [r3, #12]
 80038ba:	07d2      	lsls	r2, r2, #31
 80038bc:	d505      	bpl.n	80038ca <HAL_TIM_IRQHandler+0xc0>
 80038be:	f06f 0201 	mvn.w	r2, #1
 80038c2:	611a      	str	r2, [r3, #16]
 80038c4:	4620      	mov	r0, r4
 80038c6:	f7fe f8a9 	bl	8001a1c <HAL_TIM_PeriodElapsedCallback>
 80038ca:	6823      	ldr	r3, [r4, #0]
 80038cc:	691a      	ldr	r2, [r3, #16]
 80038ce:	0610      	lsls	r0, r2, #24
 80038d0:	d508      	bpl.n	80038e4 <HAL_TIM_IRQHandler+0xda>
 80038d2:	68da      	ldr	r2, [r3, #12]
 80038d4:	0611      	lsls	r1, r2, #24
 80038d6:	d505      	bpl.n	80038e4 <HAL_TIM_IRQHandler+0xda>
 80038d8:	f06f 0280 	mvn.w	r2, #128	; 0x80
 80038dc:	611a      	str	r2, [r3, #16]
 80038de:	4620      	mov	r0, r4
 80038e0:	f000 fa57 	bl	8003d92 <HAL_TIMEx_BreakCallback>
 80038e4:	6823      	ldr	r3, [r4, #0]
 80038e6:	691a      	ldr	r2, [r3, #16]
 80038e8:	0652      	lsls	r2, r2, #25
 80038ea:	d508      	bpl.n	80038fe <HAL_TIM_IRQHandler+0xf4>
 80038ec:	68da      	ldr	r2, [r3, #12]
 80038ee:	0650      	lsls	r0, r2, #25
 80038f0:	d505      	bpl.n	80038fe <HAL_TIM_IRQHandler+0xf4>
 80038f2:	f06f 0240 	mvn.w	r2, #64	; 0x40
 80038f6:	611a      	str	r2, [r3, #16]
 80038f8:	4620      	mov	r0, r4
 80038fa:	f7ff ff85 	bl	8003808 <HAL_TIM_TriggerCallback>
 80038fe:	6823      	ldr	r3, [r4, #0]
 8003900:	691a      	ldr	r2, [r3, #16]
 8003902:	0691      	lsls	r1, r2, #26
 8003904:	d522      	bpl.n	800394c <HAL_TIM_IRQHandler+0x142>
 8003906:	68da      	ldr	r2, [r3, #12]
 8003908:	0692      	lsls	r2, r2, #26
 800390a:	d51f      	bpl.n	800394c <HAL_TIM_IRQHandler+0x142>
 800390c:	f06f 0220 	mvn.w	r2, #32
 8003910:	4620      	mov	r0, r4
 8003912:	611a      	str	r2, [r3, #16]
 8003914:	e8bd 4010 	ldmia.w	sp!, {r4, lr}
 8003918:	f000 ba3a 	b.w	8003d90 <HAL_TIMEx_CommutCallback>
 800391c:	f7ff ff71 	bl	8003802 <HAL_TIM_OC_DelayElapsedCallback>
 8003920:	4620      	mov	r0, r4
 8003922:	f7ff ff70 	bl	8003806 <HAL_TIM_PWM_PulseFinishedCallback>
 8003926:	e783      	b.n	8003830 <HAL_TIM_IRQHandler+0x26>
 8003928:	f7ff ff6b 	bl	8003802 <HAL_TIM_OC_DelayElapsedCallback>
 800392c:	4620      	mov	r0, r4
 800392e:	f7ff ff6a 	bl	8003806 <HAL_TIM_PWM_PulseFinishedCallback>
 8003932:	e792      	b.n	800385a <HAL_TIM_IRQHandler+0x50>
 8003934:	f7ff ff65 	bl	8003802 <HAL_TIM_OC_DelayElapsedCallback>
 8003938:	4620      	mov	r0, r4
 800393a:	f7ff ff64 	bl	8003806 <HAL_TIM_PWM_PulseFinishedCallback>
 800393e:	e7a0      	b.n	8003882 <HAL_TIM_IRQHandler+0x78>
 8003940:	f7ff ff5f 	bl	8003802 <HAL_TIM_OC_DelayElapsedCallback>
 8003944:	4620      	mov	r0, r4
 8003946:	f7ff ff5e 	bl	8003806 <HAL_TIM_PWM_PulseFinishedCallback>
 800394a:	e7af      	b.n	80038ac <HAL_TIM_IRQHandler+0xa2>
 800394c:	bd10      	pop	{r4, pc}
	...

08003950 <TIM_Base_SetConfig>:
 8003950:	4a24      	ldr	r2, [pc, #144]	; (80039e4 <TIM_Base_SetConfig+0x94>)
 8003952:	6803      	ldr	r3, [r0, #0]
 8003954:	4290      	cmp	r0, r2
 8003956:	d00e      	beq.n	8003976 <TIM_Base_SetConfig+0x26>
 8003958:	f1b0 4f80 	cmp.w	r0, #1073741824	; 0x40000000
 800395c:	d00b      	beq.n	8003976 <TIM_Base_SetConfig+0x26>
 800395e:	f5a2 427c 	sub.w	r2, r2, #64512	; 0xfc00
 8003962:	4290      	cmp	r0, r2
 8003964:	d007      	beq.n	8003976 <TIM_Base_SetConfig+0x26>
 8003966:	f502 6280 	add.w	r2, r2, #1024	; 0x400
 800396a:	4290      	cmp	r0, r2
 800396c:	d003      	beq.n	8003976 <TIM_Base_SetConfig+0x26>
 800396e:	f502 6280 	add.w	r2, r2, #1024	; 0x400
 8003972:	4290      	cmp	r0, r2
 8003974:	d115      	bne.n	80039a2 <TIM_Base_SetConfig+0x52>
 8003976:	684a      	ldr	r2, [r1, #4]
 8003978:	f023 0370 	bic.w	r3, r3, #112	; 0x70
 800397c:	4313      	orrs	r3, r2
 800397e:	4a19      	ldr	r2, [pc, #100]	; (80039e4 <TIM_Base_SetConfig+0x94>)
 8003980:	4290      	cmp	r0, r2
 8003982:	d019      	beq.n	80039b8 <TIM_Base_SetConfig+0x68>
 8003984:	f1b0 4f80 	cmp.w	r0, #1073741824	; 0x40000000
 8003988:	d016      	beq.n	80039b8 <TIM_Base_SetConfig+0x68>
 800398a:	f5a2 427c 	sub.w	r2, r2, #64512	; 0xfc00
 800398e:	4290      	cmp	r0, r2
 8003990:	d012      	beq.n	80039b8 <TIM_Base_SetConfig+0x68>
 8003992:	f502 6280 	add.w	r2, r2, #1024	; 0x400
 8003996:	4290      	cmp	r0, r2
 8003998:	d00e      	beq.n	80039b8 <TIM_Base_SetConfig+0x68>
 800399a:	f502 6280 	add.w	r2, r2, #1024	; 0x400
 800399e:	4290      	cmp	r0, r2
 80039a0:	d00a      	beq.n	80039b8 <TIM_Base_SetConfig+0x68>
 80039a2:	4a11      	ldr	r2, [pc, #68]	; (80039e8 <TIM_Base_SetConfig+0x98>)
 80039a4:	4290      	cmp	r0, r2
 80039a6:	d007      	beq.n	80039b8 <TIM_Base_SetConfig+0x68>
 80039a8:	f502 6280 	add.w	r2, r2, #1024	; 0x400
 80039ac:	4290      	cmp	r0, r2
 80039ae:	d003      	beq.n	80039b8 <TIM_Base_SetConfig+0x68>
 80039b0:	f502 6280 	add.w	r2, r2, #1024	; 0x400
 80039b4:	4290      	cmp	r0, r2
 80039b6:	d103      	bne.n	80039c0 <TIM_Base_SetConfig+0x70>
 80039b8:	68ca      	ldr	r2, [r1, #12]
 80039ba:	f423 7340 	bic.w	r3, r3, #768	; 0x300
 80039be:	4313      	orrs	r3, r2
 80039c0:	694a      	ldr	r2, [r1, #20]
 80039c2:	f023 0380 	bic.w	r3, r3, #128	; 0x80
 80039c6:	4313      	orrs	r3, r2
 80039c8:	6003      	str	r3, [r0, #0]
 80039ca:	688b      	ldr	r3, [r1, #8]
 80039cc:	62c3      	str	r3, [r0, #44]	; 0x2c
 80039ce:	680b      	ldr	r3, [r1, #0]
 80039d0:	6283      	str	r3, [r0, #40]	; 0x28
 80039d2:	4b04      	ldr	r3, [pc, #16]	; (80039e4 <TIM_Base_SetConfig+0x94>)
 80039d4:	4298      	cmp	r0, r3
 80039d6:	bf04      	itt	eq
 80039d8:	690b      	ldreq	r3, [r1, #16]
 80039da:	6303      	streq	r3, [r0, #48]	; 0x30
 80039dc:	2301      	movs	r3, #1
 80039de:	6143      	str	r3, [r0, #20]
 80039e0:	4770      	bx	lr
 80039e2:	bf00      	nop
 80039e4:	40010000 	.word	0x40010000
 80039e8:	40014000 	.word	0x40014000

080039ec <HAL_TIM_Base_Init>:
 80039ec:	b510      	push	{r4, lr}
 80039ee:	4604      	mov	r4, r0
 80039f0:	b330      	cbz	r0, 8003a40 <HAL_TIM_Base_Init+0x54>
 80039f2:	f890 303d 	ldrb.w	r3, [r0, #61]	; 0x3d
 80039f6:	f003 02ff 	and.w	r2, r3, #255	; 0xff
 80039fa:	b91b      	cbnz	r3, 8003a04 <HAL_TIM_Base_Init+0x18>
 80039fc:	f880 203c 	strb.w	r2, [r0, #60]	; 0x3c
 8003a00:	f7fe f908 	bl	8001c14 <HAL_TIM_Base_MspInit>
 8003a04:	2302      	movs	r3, #2
 8003a06:	6820      	ldr	r0, [r4, #0]
 8003a08:	f884 303d 	strb.w	r3, [r4, #61]	; 0x3d
 8003a0c:	1d21      	adds	r1, r4, #4
 8003a0e:	f7ff ff9f 	bl	8003950 <TIM_Base_SetConfig>
 8003a12:	2301      	movs	r3, #1
 8003a14:	f884 3046 	strb.w	r3, [r4, #70]	; 0x46
 8003a18:	2000      	movs	r0, #0
 8003a1a:	f884 303e 	strb.w	r3, [r4, #62]	; 0x3e
 8003a1e:	f884 303f 	strb.w	r3, [r4, #63]	; 0x3f
 8003a22:	f884 3040 	strb.w	r3, [r4, #64]	; 0x40
 8003a26:	f884 3041 	strb.w	r3, [r4, #65]	; 0x41
 8003a2a:	f884 3042 	strb.w	r3, [r4, #66]	; 0x42
 8003a2e:	f884 3043 	strb.w	r3, [r4, #67]	; 0x43
 8003a32:	f884 3044 	strb.w	r3, [r4, #68]	; 0x44
 8003a36:	f884 3045 	strb.w	r3, [r4, #69]	; 0x45
 8003a3a:	f884 303d 	strb.w	r3, [r4, #61]	; 0x3d
 8003a3e:	bd10      	pop	{r4, pc}
 8003a40:	2001      	movs	r0, #1
 8003a42:	e7fc      	b.n	8003a3e <HAL_TIM_Base_Init+0x52>

08003a44 <HAL_TIM_PWM_Init>:
 8003a44:	b510      	push	{r4, lr}
 8003a46:	4604      	mov	r4, r0
 8003a48:	b330      	cbz	r0, 8003a98 <HAL_TIM_PWM_Init+0x54>
 8003a4a:	f890 303d 	ldrb.w	r3, [r0, #61]	; 0x3d
 8003a4e:	f003 02ff 	and.w	r2, r3, #255	; 0xff
 8003a52:	b91b      	cbnz	r3, 8003a5c <HAL_TIM_PWM_Init+0x18>
 8003a54:	f880 203c 	strb.w	r2, [r0, #60]	; 0x3c
 8003a58:	f7ff fed2 	bl	8003800 <HAL_TIM_PWM_MspInit>
 8003a5c:	2302      	movs	r3, #2
 8003a5e:	6820      	ldr	r0, [r4, #0]
 8003a60:	f884 303d 	strb.w	r3, [r4, #61]	; 0x3d
 8003a64:	1d21      	adds	r1, r4, #4
 8003a66:	f7ff ff73 	bl	8003950 <TIM_Base_SetConfig>
 8003a6a:	2301      	movs	r3, #1
 8003a6c:	f884 3046 	strb.w	r3, [r4, #70]	; 0x46
 8003a70:	2000      	movs	r0, #0
 8003a72:	f884 303e 	strb.w	r3, [r4, #62]	; 0x3e
 8003a76:	f884 303f 	strb.w	r3, [r4, #63]	; 0x3f
 8003a7a:	f884 3040 	strb.w	r3, [r4, #64]	; 0x40
 8003a7e:	f884 3041 	strb.w	r3, [r4, #65]	; 0x41
 8003a82:	f884 3042 	strb.w	r3, [r4, #66]	; 0x42
 8003a86:	f884 3043 	strb.w	r3, [r4, #67]	; 0x43
 8003a8a:	f884 3044 	strb.w	r3, [r4, #68]	; 0x44
 8003a8e:	f884 3045 	strb.w	r3, [r4, #69]	; 0x45
 8003a92:	f884 303d 	strb.w	r3, [r4, #61]	; 0x3d
 8003a96:	bd10      	pop	{r4, pc}
 8003a98:	2001      	movs	r0, #1
 8003a9a:	e7fc      	b.n	8003a96 <HAL_TIM_PWM_Init+0x52>

08003a9c <HAL_TIM_Encoder_Init>:
 8003a9c:	b5f8      	push	{r3, r4, r5, r6, r7, lr}
 8003a9e:	460d      	mov	r5, r1
 8003aa0:	4604      	mov	r4, r0
 8003aa2:	2800      	cmp	r0, #0
 8003aa4:	d04d      	beq.n	8003b42 <HAL_TIM_Encoder_Init+0xa6>
 8003aa6:	f890 303d 	ldrb.w	r3, [r0, #61]	; 0x3d
 8003aaa:	f003 02ff 	and.w	r2, r3, #255	; 0xff
 8003aae:	b91b      	cbnz	r3, 8003ab8 <HAL_TIM_Encoder_Init+0x1c>
 8003ab0:	f880 203c 	strb.w	r2, [r0, #60]	; 0x3c
 8003ab4:	f7fe f846 	bl	8001b44 <HAL_TIM_Encoder_MspInit>
 8003ab8:	4621      	mov	r1, r4
 8003aba:	2302      	movs	r3, #2
 8003abc:	f884 303d 	strb.w	r3, [r4, #61]	; 0x3d
 8003ac0:	f851 0b04 	ldr.w	r0, [r1], #4
 8003ac4:	6883      	ldr	r3, [r0, #8]
 8003ac6:	f423 4380 	bic.w	r3, r3, #16384	; 0x4000
 8003aca:	f023 0307 	bic.w	r3, r3, #7
 8003ace:	6083      	str	r3, [r0, #8]
 8003ad0:	f7ff ff3e 	bl	8003950 <TIM_Base_SetConfig>
 8003ad4:	6820      	ldr	r0, [r4, #0]
 8003ad6:	682b      	ldr	r3, [r5, #0]
 8003ad8:	6886      	ldr	r6, [r0, #8]
 8003ada:	6982      	ldr	r2, [r0, #24]
 8003adc:	68a9      	ldr	r1, [r5, #8]
 8003ade:	6a07      	ldr	r7, [r0, #32]
 8003ae0:	431e      	orrs	r6, r3
 8003ae2:	69ab      	ldr	r3, [r5, #24]
 8003ae4:	f422 7240 	bic.w	r2, r2, #768	; 0x300
 8003ae8:	f022 0203 	bic.w	r2, r2, #3
 8003aec:	ea41 2303 	orr.w	r3, r1, r3, lsl #8
 8003af0:	4313      	orrs	r3, r2
 8003af2:	f423 427c 	bic.w	r2, r3, #64512	; 0xfc00
 8003af6:	692b      	ldr	r3, [r5, #16]
 8003af8:	69e9      	ldr	r1, [r5, #28]
 8003afa:	011b      	lsls	r3, r3, #4
 8003afc:	ea43 2301 	orr.w	r3, r3, r1, lsl #8
 8003b00:	68e9      	ldr	r1, [r5, #12]
 8003b02:	430b      	orrs	r3, r1
 8003b04:	6a29      	ldr	r1, [r5, #32]
 8003b06:	f022 02fc 	bic.w	r2, r2, #252	; 0xfc
 8003b0a:	ea43 3301 	orr.w	r3, r3, r1, lsl #12
 8003b0e:	4313      	orrs	r3, r2
 8003b10:	6969      	ldr	r1, [r5, #20]
 8003b12:	f027 02aa 	bic.w	r2, r7, #170	; 0xaa
 8003b16:	686f      	ldr	r7, [r5, #4]
 8003b18:	6086      	str	r6, [r0, #8]
 8003b1a:	ea47 1701 	orr.w	r7, r7, r1, lsl #4
 8003b1e:	6183      	str	r3, [r0, #24]
 8003b20:	4317      	orrs	r7, r2
 8003b22:	2301      	movs	r3, #1
 8003b24:	6207      	str	r7, [r0, #32]
 8003b26:	f884 3046 	strb.w	r3, [r4, #70]	; 0x46
 8003b2a:	2000      	movs	r0, #0
 8003b2c:	f884 303e 	strb.w	r3, [r4, #62]	; 0x3e
 8003b30:	f884 303f 	strb.w	r3, [r4, #63]	; 0x3f
 8003b34:	f884 3042 	strb.w	r3, [r4, #66]	; 0x42
 8003b38:	f884 3043 	strb.w	r3, [r4, #67]	; 0x43
 8003b3c:	f884 303d 	strb.w	r3, [r4, #61]	; 0x3d
 8003b40:	bdf8      	pop	{r3, r4, r5, r6, r7, pc}
 8003b42:	2001      	movs	r0, #1
 8003b44:	e7fc      	b.n	8003b40 <HAL_TIM_Encoder_Init+0xa4>
	...

08003b48 <TIM_OC2_SetConfig>:
 8003b48:	6a03      	ldr	r3, [r0, #32]
 8003b4a:	f023 0310 	bic.w	r3, r3, #16
 8003b4e:	6203      	str	r3, [r0, #32]
 8003b50:	6a03      	ldr	r3, [r0, #32]
 8003b52:	b570      	push	{r4, r5, r6, lr}
 8003b54:	6844      	ldr	r4, [r0, #4]
 8003b56:	6982      	ldr	r2, [r0, #24]
 8003b58:	680d      	ldr	r5, [r1, #0]
 8003b5a:	f422 42e6 	bic.w	r2, r2, #29440	; 0x7300
 8003b5e:	ea42 2205 	orr.w	r2, r2, r5, lsl #8
 8003b62:	688d      	ldr	r5, [r1, #8]
 8003b64:	f023 0320 	bic.w	r3, r3, #32
 8003b68:	ea43 1305 	orr.w	r3, r3, r5, lsl #4
 8003b6c:	4d0b      	ldr	r5, [pc, #44]	; (8003b9c <TIM_OC2_SetConfig+0x54>)
 8003b6e:	42a8      	cmp	r0, r5
 8003b70:	d10d      	bne.n	8003b8e <TIM_OC2_SetConfig+0x46>
 8003b72:	68cd      	ldr	r5, [r1, #12]
 8003b74:	f023 0380 	bic.w	r3, r3, #128	; 0x80
 8003b78:	ea43 1305 	orr.w	r3, r3, r5, lsl #4
 8003b7c:	e9d1 5605 	ldrd	r5, r6, [r1, #20]
 8003b80:	f424 6440 	bic.w	r4, r4, #3072	; 0xc00
 8003b84:	4335      	orrs	r5, r6
 8003b86:	f023 0340 	bic.w	r3, r3, #64	; 0x40
 8003b8a:	ea44 0485 	orr.w	r4, r4, r5, lsl #2
 8003b8e:	6044      	str	r4, [r0, #4]
 8003b90:	6182      	str	r2, [r0, #24]
 8003b92:	684a      	ldr	r2, [r1, #4]
 8003b94:	6382      	str	r2, [r0, #56]	; 0x38
 8003b96:	6203      	str	r3, [r0, #32]
 8003b98:	bd70      	pop	{r4, r5, r6, pc}
 8003b9a:	bf00      	nop
 8003b9c:	40010000 	.word	0x40010000

08003ba0 <HAL_TIM_PWM_ConfigChannel>:
 8003ba0:	b538      	push	{r3, r4, r5, lr}
 8003ba2:	f890 303c 	ldrb.w	r3, [r0, #60]	; 0x3c
 8003ba6:	2b01      	cmp	r3, #1
 8003ba8:	4604      	mov	r4, r0
 8003baa:	d052      	beq.n	8003c52 <HAL_TIM_PWM_ConfigChannel+0xb2>
 8003bac:	2301      	movs	r3, #1
 8003bae:	2a08      	cmp	r2, #8
 8003bb0:	f880 303c 	strb.w	r3, [r0, #60]	; 0x3c
 8003bb4:	d03c      	beq.n	8003c30 <HAL_TIM_PWM_ConfigChannel+0x90>
 8003bb6:	d806      	bhi.n	8003bc6 <HAL_TIM_PWM_ConfigChannel+0x26>
 8003bb8:	b1c2      	cbz	r2, 8003bec <HAL_TIM_PWM_ConfigChannel+0x4c>
 8003bba:	2a04      	cmp	r2, #4
 8003bbc:	d027      	beq.n	8003c0e <HAL_TIM_PWM_ConfigChannel+0x6e>
 8003bbe:	2000      	movs	r0, #0
 8003bc0:	f884 003c 	strb.w	r0, [r4, #60]	; 0x3c
 8003bc4:	bd38      	pop	{r3, r4, r5, pc}
 8003bc6:	2a0c      	cmp	r2, #12
 8003bc8:	d1f9      	bne.n	8003bbe <HAL_TIM_PWM_ConfigChannel+0x1e>
 8003bca:	6800      	ldr	r0, [r0, #0]
 8003bcc:	f7ff fdc4 	bl	8003758 <TIM_OC4_SetConfig>
 8003bd0:	6823      	ldr	r3, [r4, #0]
 8003bd2:	6909      	ldr	r1, [r1, #16]
 8003bd4:	69da      	ldr	r2, [r3, #28]
 8003bd6:	f442 6200 	orr.w	r2, r2, #2048	; 0x800
 8003bda:	61da      	str	r2, [r3, #28]
 8003bdc:	69da      	ldr	r2, [r3, #28]
 8003bde:	f422 6280 	bic.w	r2, r2, #1024	; 0x400
 8003be2:	61da      	str	r2, [r3, #28]
 8003be4:	69da      	ldr	r2, [r3, #28]
 8003be6:	ea42 2201 	orr.w	r2, r2, r1, lsl #8
 8003bea:	e030      	b.n	8003c4e <HAL_TIM_PWM_ConfigChannel+0xae>
 8003bec:	6800      	ldr	r0, [r0, #0]
 8003bee:	f7ff fd61 	bl	80036b4 <TIM_OC1_SetConfig>
 8003bf2:	6823      	ldr	r3, [r4, #0]
 8003bf4:	6909      	ldr	r1, [r1, #16]
 8003bf6:	699a      	ldr	r2, [r3, #24]
 8003bf8:	f042 0208 	orr.w	r2, r2, #8
 8003bfc:	619a      	str	r2, [r3, #24]
 8003bfe:	699a      	ldr	r2, [r3, #24]
 8003c00:	f022 0204 	bic.w	r2, r2, #4
 8003c04:	619a      	str	r2, [r3, #24]
 8003c06:	699a      	ldr	r2, [r3, #24]
 8003c08:	430a      	orrs	r2, r1
 8003c0a:	619a      	str	r2, [r3, #24]
 8003c0c:	e7d7      	b.n	8003bbe <HAL_TIM_PWM_ConfigChannel+0x1e>
 8003c0e:	6800      	ldr	r0, [r0, #0]
 8003c10:	f7ff ff9a 	bl	8003b48 <TIM_OC2_SetConfig>
 8003c14:	6823      	ldr	r3, [r4, #0]
 8003c16:	6909      	ldr	r1, [r1, #16]
 8003c18:	699a      	ldr	r2, [r3, #24]
 8003c1a:	f442 6200 	orr.w	r2, r2, #2048	; 0x800
 8003c1e:	619a      	str	r2, [r3, #24]
 8003c20:	699a      	ldr	r2, [r3, #24]
 8003c22:	f422 6280 	bic.w	r2, r2, #1024	; 0x400
 8003c26:	619a      	str	r2, [r3, #24]
 8003c28:	699a      	ldr	r2, [r3, #24]
 8003c2a:	ea42 2201 	orr.w	r2, r2, r1, lsl #8
 8003c2e:	e7ec      	b.n	8003c0a <HAL_TIM_PWM_ConfigChannel+0x6a>
 8003c30:	6800      	ldr	r0, [r0, #0]
 8003c32:	f7ff fd67 	bl	8003704 <TIM_OC3_SetConfig>
 8003c36:	6823      	ldr	r3, [r4, #0]
 8003c38:	6909      	ldr	r1, [r1, #16]
 8003c3a:	69da      	ldr	r2, [r3, #28]
 8003c3c:	f042 0208 	orr.w	r2, r2, #8
 8003c40:	61da      	str	r2, [r3, #28]
 8003c42:	69da      	ldr	r2, [r3, #28]
 8003c44:	f022 0204 	bic.w	r2, r2, #4
 8003c48:	61da      	str	r2, [r3, #28]
 8003c4a:	69da      	ldr	r2, [r3, #28]
 8003c4c:	430a      	orrs	r2, r1
 8003c4e:	61da      	str	r2, [r3, #28]
 8003c50:	e7b5      	b.n	8003bbe <HAL_TIM_PWM_ConfigChannel+0x1e>
 8003c52:	2002      	movs	r0, #2
 8003c54:	e7b6      	b.n	8003bc4 <HAL_TIM_PWM_ConfigChannel+0x24>

08003c56 <TIM_CCxChannelCmd>:
 8003c56:	6a03      	ldr	r3, [r0, #32]
 8003c58:	f001 011f 	and.w	r1, r1, #31
 8003c5c:	b510      	push	{r4, lr}
 8003c5e:	2401      	movs	r4, #1
 8003c60:	408c      	lsls	r4, r1
 8003c62:	ea23 0304 	bic.w	r3, r3, r4
 8003c66:	6203      	str	r3, [r0, #32]
 8003c68:	6a03      	ldr	r3, [r0, #32]
 8003c6a:	408a      	lsls	r2, r1
 8003c6c:	431a      	orrs	r2, r3
 8003c6e:	6202      	str	r2, [r0, #32]
 8003c70:	bd10      	pop	{r4, pc}
	...

08003c74 <HAL_TIM_OC_Start>:
 8003c74:	b510      	push	{r4, lr}
 8003c76:	4604      	mov	r4, r0
 8003c78:	b929      	cbnz	r1, 8003c86 <HAL_TIM_OC_Start+0x12>
 8003c7a:	f890 303e 	ldrb.w	r3, [r0, #62]	; 0x3e
 8003c7e:	2b01      	cmp	r3, #1
 8003c80:	d01d      	beq.n	8003cbe <HAL_TIM_OC_Start+0x4a>
 8003c82:	2001      	movs	r0, #1
 8003c84:	bd10      	pop	{r4, pc}
 8003c86:	2904      	cmp	r1, #4
 8003c88:	d107      	bne.n	8003c9a <HAL_TIM_OC_Start+0x26>
 8003c8a:	f890 303f 	ldrb.w	r3, [r0, #63]	; 0x3f
 8003c8e:	2b01      	cmp	r3, #1
 8003c90:	d1f7      	bne.n	8003c82 <HAL_TIM_OC_Start+0xe>
 8003c92:	2302      	movs	r3, #2
 8003c94:	f880 303f 	strb.w	r3, [r0, #63]	; 0x3f
 8003c98:	e014      	b.n	8003cc4 <HAL_TIM_OC_Start+0x50>
 8003c9a:	2908      	cmp	r1, #8
 8003c9c:	d107      	bne.n	8003cae <HAL_TIM_OC_Start+0x3a>
 8003c9e:	f890 3040 	ldrb.w	r3, [r0, #64]	; 0x40
 8003ca2:	2b01      	cmp	r3, #1
 8003ca4:	d1ed      	bne.n	8003c82 <HAL_TIM_OC_Start+0xe>
 8003ca6:	2302      	movs	r3, #2
 8003ca8:	f880 3040 	strb.w	r3, [r0, #64]	; 0x40
 8003cac:	e00a      	b.n	8003cc4 <HAL_TIM_OC_Start+0x50>
 8003cae:	f890 3041 	ldrb.w	r3, [r0, #65]	; 0x41
 8003cb2:	2b01      	cmp	r3, #1
 8003cb4:	d1e5      	bne.n	8003c82 <HAL_TIM_OC_Start+0xe>
 8003cb6:	2302      	movs	r3, #2
 8003cb8:	f880 3041 	strb.w	r3, [r0, #65]	; 0x41
 8003cbc:	e002      	b.n	8003cc4 <HAL_TIM_OC_Start+0x50>
 8003cbe:	2302      	movs	r3, #2
 8003cc0:	f880 303e 	strb.w	r3, [r0, #62]	; 0x3e
 8003cc4:	2201      	movs	r2, #1
 8003cc6:	6820      	ldr	r0, [r4, #0]
 8003cc8:	f7ff ffc5 	bl	8003c56 <TIM_CCxChannelCmd>
 8003ccc:	6823      	ldr	r3, [r4, #0]
 8003cce:	4a12      	ldr	r2, [pc, #72]	; (8003d18 <HAL_TIM_OC_Start+0xa4>)
 8003cd0:	4293      	cmp	r3, r2
 8003cd2:	d10a      	bne.n	8003cea <HAL_TIM_OC_Start+0x76>
 8003cd4:	6c5a      	ldr	r2, [r3, #68]	; 0x44
 8003cd6:	f442 4200 	orr.w	r2, r2, #32768	; 0x8000
 8003cda:	645a      	str	r2, [r3, #68]	; 0x44
 8003cdc:	689a      	ldr	r2, [r3, #8]
 8003cde:	f002 0207 	and.w	r2, r2, #7
 8003ce2:	2a06      	cmp	r2, #6
 8003ce4:	d113      	bne.n	8003d0e <HAL_TIM_OC_Start+0x9a>
 8003ce6:	2000      	movs	r0, #0
 8003ce8:	e7cc      	b.n	8003c84 <HAL_TIM_OC_Start+0x10>
 8003cea:	f1b3 4f80 	cmp.w	r3, #1073741824	; 0x40000000
 8003cee:	d0f5      	beq.n	8003cdc <HAL_TIM_OC_Start+0x68>
 8003cf0:	4a0a      	ldr	r2, [pc, #40]	; (8003d1c <HAL_TIM_OC_Start+0xa8>)
 8003cf2:	4293      	cmp	r3, r2
 8003cf4:	d0f2      	beq.n	8003cdc <HAL_TIM_OC_Start+0x68>
 8003cf6:	f502 6280 	add.w	r2, r2, #1024	; 0x400
 8003cfa:	4293      	cmp	r3, r2
 8003cfc:	d0ee      	beq.n	8003cdc <HAL_TIM_OC_Start+0x68>
 8003cfe:	f502 6280 	add.w	r2, r2, #1024	; 0x400
 8003d02:	4293      	cmp	r3, r2
 8003d04:	d0ea      	beq.n	8003cdc <HAL_TIM_OC_Start+0x68>
 8003d06:	f502 329a 	add.w	r2, r2, #78848	; 0x13400
 8003d0a:	4293      	cmp	r3, r2
 8003d0c:	d0e6      	beq.n	8003cdc <HAL_TIM_OC_Start+0x68>
 8003d0e:	681a      	ldr	r2, [r3, #0]
 8003d10:	f042 0201 	orr.w	r2, r2, #1
 8003d14:	601a      	str	r2, [r3, #0]
 8003d16:	e7e6      	b.n	8003ce6 <HAL_TIM_OC_Start+0x72>
 8003d18:	40010000 	.word	0x40010000
 8003d1c:	40000400 	.word	0x40000400

08003d20 <HAL_TIM_PWM_Start>:
 8003d20:	f7ff bfa8 	b.w	8003c74 <HAL_TIM_OC_Start>

08003d24 <HAL_TIMEx_MasterConfigSynchronization>:
 8003d24:	b530      	push	{r4, r5, lr}
 8003d26:	f890 303c 	ldrb.w	r3, [r0, #60]	; 0x3c
 8003d2a:	2b01      	cmp	r3, #1
 8003d2c:	f04f 0302 	mov.w	r3, #2
 8003d30:	d02a      	beq.n	8003d88 <HAL_TIMEx_MasterConfigSynchronization+0x64>
 8003d32:	f880 303d 	strb.w	r3, [r0, #61]	; 0x3d
 8003d36:	6803      	ldr	r3, [r0, #0]
 8003d38:	680d      	ldr	r5, [r1, #0]
 8003d3a:	685c      	ldr	r4, [r3, #4]
 8003d3c:	689a      	ldr	r2, [r3, #8]
 8003d3e:	f024 0470 	bic.w	r4, r4, #112	; 0x70
 8003d42:	432c      	orrs	r4, r5
 8003d44:	605c      	str	r4, [r3, #4]
 8003d46:	4c11      	ldr	r4, [pc, #68]	; (8003d8c <HAL_TIMEx_MasterConfigSynchronization+0x68>)
 8003d48:	42a3      	cmp	r3, r4
 8003d4a:	d012      	beq.n	8003d72 <HAL_TIMEx_MasterConfigSynchronization+0x4e>
 8003d4c:	f1b3 4f80 	cmp.w	r3, #1073741824	; 0x40000000
 8003d50:	d00f      	beq.n	8003d72 <HAL_TIMEx_MasterConfigSynchronization+0x4e>
 8003d52:	f5a4 447c 	sub.w	r4, r4, #64512	; 0xfc00
 8003d56:	42a3      	cmp	r3, r4
 8003d58:	d00b      	beq.n	8003d72 <HAL_TIMEx_MasterConfigSynchronization+0x4e>
 8003d5a:	f504 6480 	add.w	r4, r4, #1024	; 0x400
 8003d5e:	42a3      	cmp	r3, r4
 8003d60:	d007      	beq.n	8003d72 <HAL_TIMEx_MasterConfigSynchronization+0x4e>
 8003d62:	f504 6480 	add.w	r4, r4, #1024	; 0x400
 8003d66:	42a3      	cmp	r3, r4
 8003d68:	d003      	beq.n	8003d72 <HAL_TIMEx_MasterConfigSynchronization+0x4e>
 8003d6a:	f504 349a 	add.w	r4, r4, #78848	; 0x13400
 8003d6e:	42a3      	cmp	r3, r4
 8003d70:	d104      	bne.n	8003d7c <HAL_TIMEx_MasterConfigSynchronization+0x58>
 8003d72:	6849      	ldr	r1, [r1, #4]
 8003d74:	f022 0280 	bic.w	r2, r2, #128	; 0x80
 8003d78:	430a      	orrs	r2, r1
 8003d7a:	609a      	str	r2, [r3, #8]
 8003d7c:	2301      	movs	r3, #1
 8003d7e:	f880 303d 	strb.w	r3, [r0, #61]	; 0x3d
 8003d82:	2300      	movs	r3, #0
 8003d84:	f880 303c 	strb.w	r3, [r0, #60]	; 0x3c
 8003d88:	4618      	mov	r0, r3
 8003d8a:	bd30      	pop	{r4, r5, pc}
 8003d8c:	40010000 	.word	0x40010000

08003d90 <HAL_TIMEx_CommutCallback>:
 8003d90:	4770      	bx	lr

08003d92 <HAL_TIMEx_BreakCallback>:
 8003d92:	4770      	bx	lr

08003d94 <__errno>:
 8003d94:	4b01      	ldr	r3, [pc, #4]	; (8003d9c <__errno+0x8>)
 8003d96:	6818      	ldr	r0, [r3, #0]
 8003d98:	4770      	bx	lr
 8003d9a:	bf00      	nop
 8003d9c:	20000010 	.word	0x20000010

08003da0 <__libc_init_array>:
 8003da0:	b570      	push	{r4, r5, r6, lr}
 8003da2:	4d0d      	ldr	r5, [pc, #52]	; (8003dd8 <__libc_init_array+0x38>)
 8003da4:	4c0d      	ldr	r4, [pc, #52]	; (8003ddc <__libc_init_array+0x3c>)
 8003da6:	1b64      	subs	r4, r4, r5
 8003da8:	10a4      	asrs	r4, r4, #2
 8003daa:	2600      	movs	r6, #0
 8003dac:	42a6      	cmp	r6, r4
 8003dae:	d109      	bne.n	8003dc4 <__libc_init_array+0x24>
 8003db0:	4d0b      	ldr	r5, [pc, #44]	; (8003de0 <__libc_init_array+0x40>)
 8003db2:	4c0c      	ldr	r4, [pc, #48]	; (8003de4 <__libc_init_array+0x44>)
 8003db4:	f000 fb82 	bl	80044bc <_init>
 8003db8:	1b64      	subs	r4, r4, r5
 8003dba:	10a4      	asrs	r4, r4, #2
 8003dbc:	2600      	movs	r6, #0
 8003dbe:	42a6      	cmp	r6, r4
 8003dc0:	d105      	bne.n	8003dce <__libc_init_array+0x2e>
 8003dc2:	bd70      	pop	{r4, r5, r6, pc}
 8003dc4:	f855 3b04 	ldr.w	r3, [r5], #4
 8003dc8:	4798      	blx	r3
 8003dca:	3601      	adds	r6, #1
 8003dcc:	e7ee      	b.n	8003dac <__libc_init_array+0xc>
 8003dce:	f855 3b04 	ldr.w	r3, [r5], #4
 8003dd2:	4798      	blx	r3
 8003dd4:	3601      	adds	r6, #1
 8003dd6:	e7f2      	b.n	8003dbe <__libc_init_array+0x1e>
 8003dd8:	08004570 	.word	0x08004570
 8003ddc:	08004570 	.word	0x08004570
 8003de0:	08004570 	.word	0x08004570
 8003de4:	08004574 	.word	0x08004574

08003de8 <memset>:
 8003de8:	4402      	add	r2, r0
 8003dea:	4603      	mov	r3, r0
 8003dec:	4293      	cmp	r3, r2
 8003dee:	d100      	bne.n	8003df2 <memset+0xa>
 8003df0:	4770      	bx	lr
 8003df2:	f803 1b01 	strb.w	r1, [r3], #1
 8003df6:	e7f9      	b.n	8003dec <memset+0x4>

08003df8 <atan2>:
 8003df8:	f000 b836 	b.w	8003e68 <__ieee754_atan2>

08003dfc <sqrt>:
 8003dfc:	b538      	push	{r3, r4, r5, lr}
 8003dfe:	ed2d 8b02 	vpush	{d8}
 8003e02:	ec55 4b10 	vmov	r4, r5, d0
 8003e06:	f000 f8f9 	bl	8003ffc <__ieee754_sqrt>
 8003e0a:	4b15      	ldr	r3, [pc, #84]	; (8003e60 <sqrt+0x64>)
 8003e0c:	eeb0 8a40 	vmov.f32	s16, s0
 8003e10:	eef0 8a60 	vmov.f32	s17, s1
 8003e14:	f993 3000 	ldrsb.w	r3, [r3]
 8003e18:	3301      	adds	r3, #1
 8003e1a:	d019      	beq.n	8003e50 <sqrt+0x54>
 8003e1c:	4622      	mov	r2, r4
 8003e1e:	462b      	mov	r3, r5
 8003e20:	4620      	mov	r0, r4
 8003e22:	4629      	mov	r1, r5
 8003e24:	f7fc fe2e 	bl	8000a84 <__aeabi_dcmpun>
 8003e28:	b990      	cbnz	r0, 8003e50 <sqrt+0x54>
 8003e2a:	2200      	movs	r2, #0
 8003e2c:	2300      	movs	r3, #0
 8003e2e:	4620      	mov	r0, r4
 8003e30:	4629      	mov	r1, r5
 8003e32:	f7fc fdff 	bl	8000a34 <__aeabi_dcmplt>
 8003e36:	b158      	cbz	r0, 8003e50 <sqrt+0x54>
 8003e38:	f7ff ffac 	bl	8003d94 <__errno>
 8003e3c:	2321      	movs	r3, #33	; 0x21
 8003e3e:	6003      	str	r3, [r0, #0]
 8003e40:	2200      	movs	r2, #0
 8003e42:	2300      	movs	r3, #0
 8003e44:	4610      	mov	r0, r2
 8003e46:	4619      	mov	r1, r3
 8003e48:	f7fc fcac 	bl	80007a4 <__aeabi_ddiv>
 8003e4c:	ec41 0b18 	vmov	d8, r0, r1
 8003e50:	eeb0 0a48 	vmov.f32	s0, s16
 8003e54:	eef0 0a68 	vmov.f32	s1, s17
 8003e58:	ecbd 8b02 	vpop	{d8}
 8003e5c:	bd38      	pop	{r3, r4, r5, pc}
 8003e5e:	bf00      	nop
 8003e60:	20000074 	.word	0x20000074
 8003e64:	00000000 	.word	0x00000000

08003e68 <__ieee754_atan2>:
 8003e68:	e92d 43f8 	stmdb	sp!, {r3, r4, r5, r6, r7, r8, r9, lr}
 8003e6c:	ec57 6b11 	vmov	r6, r7, d1
 8003e70:	4273      	negs	r3, r6
 8003e72:	f8df e184 	ldr.w	lr, [pc, #388]	; 8003ff8 <__ieee754_atan2+0x190>
 8003e76:	f027 4200 	bic.w	r2, r7, #2147483648	; 0x80000000
 8003e7a:	4333      	orrs	r3, r6
 8003e7c:	ea42 73d3 	orr.w	r3, r2, r3, lsr #31
 8003e80:	4573      	cmp	r3, lr
 8003e82:	ec51 0b10 	vmov	r0, r1, d0
 8003e86:	ee11 8a10 	vmov	r8, s2
 8003e8a:	d80a      	bhi.n	8003ea2 <__ieee754_atan2+0x3a>
 8003e8c:	4244      	negs	r4, r0
 8003e8e:	f021 4300 	bic.w	r3, r1, #2147483648	; 0x80000000
 8003e92:	4304      	orrs	r4, r0
 8003e94:	ea43 74d4 	orr.w	r4, r3, r4, lsr #31
 8003e98:	4574      	cmp	r4, lr
 8003e9a:	ee10 9a10 	vmov	r9, s0
 8003e9e:	468c      	mov	ip, r1
 8003ea0:	d907      	bls.n	8003eb2 <__ieee754_atan2+0x4a>
 8003ea2:	4632      	mov	r2, r6
 8003ea4:	463b      	mov	r3, r7
 8003ea6:	f7fc f99d 	bl	80001e4 <__adddf3>
 8003eaa:	ec41 0b10 	vmov	d0, r0, r1
 8003eae:	e8bd 83f8 	ldmia.w	sp!, {r3, r4, r5, r6, r7, r8, r9, pc}
 8003eb2:	f107 4440 	add.w	r4, r7, #3221225472	; 0xc0000000
 8003eb6:	f504 1480 	add.w	r4, r4, #1048576	; 0x100000
 8003eba:	4334      	orrs	r4, r6
 8003ebc:	d103      	bne.n	8003ec6 <__ieee754_atan2+0x5e>
 8003ebe:	e8bd 43f8 	ldmia.w	sp!, {r3, r4, r5, r6, r7, r8, r9, lr}
 8003ec2:	f000 b951 	b.w	8004168 <atan>
 8003ec6:	17bc      	asrs	r4, r7, #30
 8003ec8:	f004 0402 	and.w	r4, r4, #2
 8003ecc:	ea53 0909 	orrs.w	r9, r3, r9
 8003ed0:	ea44 74d1 	orr.w	r4, r4, r1, lsr #31
 8003ed4:	d107      	bne.n	8003ee6 <__ieee754_atan2+0x7e>
 8003ed6:	2c02      	cmp	r4, #2
 8003ed8:	d060      	beq.n	8003f9c <__ieee754_atan2+0x134>
 8003eda:	2c03      	cmp	r4, #3
 8003edc:	d1e5      	bne.n	8003eaa <__ieee754_atan2+0x42>
 8003ede:	a142      	add	r1, pc, #264	; (adr r1, 8003fe8 <__ieee754_atan2+0x180>)
 8003ee0:	e9d1 0100 	ldrd	r0, r1, [r1]
 8003ee4:	e7e1      	b.n	8003eaa <__ieee754_atan2+0x42>
 8003ee6:	ea52 0808 	orrs.w	r8, r2, r8
 8003eea:	d106      	bne.n	8003efa <__ieee754_atan2+0x92>
 8003eec:	f1bc 0f00 	cmp.w	ip, #0
 8003ef0:	da5f      	bge.n	8003fb2 <__ieee754_atan2+0x14a>
 8003ef2:	a13f      	add	r1, pc, #252	; (adr r1, 8003ff0 <__ieee754_atan2+0x188>)
 8003ef4:	e9d1 0100 	ldrd	r0, r1, [r1]
 8003ef8:	e7d7      	b.n	8003eaa <__ieee754_atan2+0x42>
 8003efa:	4572      	cmp	r2, lr
 8003efc:	d10f      	bne.n	8003f1e <__ieee754_atan2+0xb6>
 8003efe:	4293      	cmp	r3, r2
 8003f00:	f104 34ff 	add.w	r4, r4, #4294967295
 8003f04:	d107      	bne.n	8003f16 <__ieee754_atan2+0xae>
 8003f06:	2c02      	cmp	r4, #2
 8003f08:	d84c      	bhi.n	8003fa4 <__ieee754_atan2+0x13c>
 8003f0a:	4b35      	ldr	r3, [pc, #212]	; (8003fe0 <__ieee754_atan2+0x178>)
 8003f0c:	eb03 04c4 	add.w	r4, r3, r4, lsl #3
 8003f10:	e9d4 0100 	ldrd	r0, r1, [r4]
 8003f14:	e7c9      	b.n	8003eaa <__ieee754_atan2+0x42>
 8003f16:	2c02      	cmp	r4, #2
 8003f18:	d848      	bhi.n	8003fac <__ieee754_atan2+0x144>
 8003f1a:	4b32      	ldr	r3, [pc, #200]	; (8003fe4 <__ieee754_atan2+0x17c>)
 8003f1c:	e7f6      	b.n	8003f0c <__ieee754_atan2+0xa4>
 8003f1e:	4573      	cmp	r3, lr
 8003f20:	d0e4      	beq.n	8003eec <__ieee754_atan2+0x84>
 8003f22:	1a9b      	subs	r3, r3, r2
 8003f24:	f1b3 7f74 	cmp.w	r3, #63963136	; 0x3d00000
 8003f28:	ea4f 5223 	mov.w	r2, r3, asr #20
 8003f2c:	da1e      	bge.n	8003f6c <__ieee754_atan2+0x104>
 8003f2e:	2f00      	cmp	r7, #0
 8003f30:	da01      	bge.n	8003f36 <__ieee754_atan2+0xce>
 8003f32:	323c      	adds	r2, #60	; 0x3c
 8003f34:	db1e      	blt.n	8003f74 <__ieee754_atan2+0x10c>
 8003f36:	4632      	mov	r2, r6
 8003f38:	463b      	mov	r3, r7
 8003f3a:	f7fc fc33 	bl	80007a4 <__aeabi_ddiv>
 8003f3e:	ec41 0b10 	vmov	d0, r0, r1
 8003f42:	f000 fab1 	bl	80044a8 <fabs>
 8003f46:	f000 f90f 	bl	8004168 <atan>
 8003f4a:	ec51 0b10 	vmov	r0, r1, d0
 8003f4e:	2c01      	cmp	r4, #1
 8003f50:	d013      	beq.n	8003f7a <__ieee754_atan2+0x112>
 8003f52:	2c02      	cmp	r4, #2
 8003f54:	d015      	beq.n	8003f82 <__ieee754_atan2+0x11a>
 8003f56:	2c00      	cmp	r4, #0
 8003f58:	d0a7      	beq.n	8003eaa <__ieee754_atan2+0x42>
 8003f5a:	a319      	add	r3, pc, #100	; (adr r3, 8003fc0 <__ieee754_atan2+0x158>)
 8003f5c:	e9d3 2300 	ldrd	r2, r3, [r3]
 8003f60:	f7fc f93e 	bl	80001e0 <__aeabi_dsub>
 8003f64:	a318      	add	r3, pc, #96	; (adr r3, 8003fc8 <__ieee754_atan2+0x160>)
 8003f66:	e9d3 2300 	ldrd	r2, r3, [r3]
 8003f6a:	e014      	b.n	8003f96 <__ieee754_atan2+0x12e>
 8003f6c:	a118      	add	r1, pc, #96	; (adr r1, 8003fd0 <__ieee754_atan2+0x168>)
 8003f6e:	e9d1 0100 	ldrd	r0, r1, [r1]
 8003f72:	e7ec      	b.n	8003f4e <__ieee754_atan2+0xe6>
 8003f74:	2000      	movs	r0, #0
 8003f76:	2100      	movs	r1, #0
 8003f78:	e7e9      	b.n	8003f4e <__ieee754_atan2+0xe6>
 8003f7a:	f101 4300 	add.w	r3, r1, #2147483648	; 0x80000000
 8003f7e:	4619      	mov	r1, r3
 8003f80:	e793      	b.n	8003eaa <__ieee754_atan2+0x42>
 8003f82:	a30f      	add	r3, pc, #60	; (adr r3, 8003fc0 <__ieee754_atan2+0x158>)
 8003f84:	e9d3 2300 	ldrd	r2, r3, [r3]
 8003f88:	f7fc f92a 	bl	80001e0 <__aeabi_dsub>
 8003f8c:	4602      	mov	r2, r0
 8003f8e:	460b      	mov	r3, r1
 8003f90:	a10d      	add	r1, pc, #52	; (adr r1, 8003fc8 <__ieee754_atan2+0x160>)
 8003f92:	e9d1 0100 	ldrd	r0, r1, [r1]
 8003f96:	f7fc f923 	bl	80001e0 <__aeabi_dsub>
 8003f9a:	e786      	b.n	8003eaa <__ieee754_atan2+0x42>
 8003f9c:	a10a      	add	r1, pc, #40	; (adr r1, 8003fc8 <__ieee754_atan2+0x160>)
 8003f9e:	e9d1 0100 	ldrd	r0, r1, [r1]
 8003fa2:	e782      	b.n	8003eaa <__ieee754_atan2+0x42>
 8003fa4:	a10c      	add	r1, pc, #48	; (adr r1, 8003fd8 <__ieee754_atan2+0x170>)
 8003fa6:	e9d1 0100 	ldrd	r0, r1, [r1]
 8003faa:	e77e      	b.n	8003eaa <__ieee754_atan2+0x42>
 8003fac:	2000      	movs	r0, #0
 8003fae:	2100      	movs	r1, #0
 8003fb0:	e77b      	b.n	8003eaa <__ieee754_atan2+0x42>
 8003fb2:	a107      	add	r1, pc, #28	; (adr r1, 8003fd0 <__ieee754_atan2+0x168>)
 8003fb4:	e9d1 0100 	ldrd	r0, r1, [r1]
 8003fb8:	e777      	b.n	8003eaa <__ieee754_atan2+0x42>
 8003fba:	bf00      	nop
 8003fbc:	f3af 8000 	nop.w
 8003fc0:	33145c07 	.word	0x33145c07
 8003fc4:	3ca1a626 	.word	0x3ca1a626
 8003fc8:	54442d18 	.word	0x54442d18
 8003fcc:	400921fb 	.word	0x400921fb
 8003fd0:	54442d18 	.word	0x54442d18
 8003fd4:	3ff921fb 	.word	0x3ff921fb
 8003fd8:	54442d18 	.word	0x54442d18
 8003fdc:	3fe921fb 	.word	0x3fe921fb
 8003fe0:	080044f8 	.word	0x080044f8
 8003fe4:	08004510 	.word	0x08004510
 8003fe8:	54442d18 	.word	0x54442d18
 8003fec:	c00921fb 	.word	0xc00921fb
 8003ff0:	54442d18 	.word	0x54442d18
 8003ff4:	bff921fb 	.word	0xbff921fb
 8003ff8:	7ff00000 	.word	0x7ff00000

08003ffc <__ieee754_sqrt>:
 8003ffc:	e92d 41f0 	stmdb	sp!, {r4, r5, r6, r7, r8, lr}
 8004000:	ec55 4b10 	vmov	r4, r5, d0
 8004004:	4e56      	ldr	r6, [pc, #344]	; (8004160 <__ieee754_sqrt+0x164>)
 8004006:	43ae      	bics	r6, r5
 8004008:	ee10 0a10 	vmov	r0, s0
 800400c:	ee10 3a10 	vmov	r3, s0
 8004010:	4629      	mov	r1, r5
 8004012:	462a      	mov	r2, r5
 8004014:	d110      	bne.n	8004038 <__ieee754_sqrt+0x3c>
 8004016:	ee10 2a10 	vmov	r2, s0
 800401a:	462b      	mov	r3, r5
 800401c:	f7fc fa98 	bl	8000550 <__aeabi_dmul>
 8004020:	4602      	mov	r2, r0
 8004022:	460b      	mov	r3, r1
 8004024:	4620      	mov	r0, r4
 8004026:	4629      	mov	r1, r5
 8004028:	f7fc f8dc 	bl	80001e4 <__adddf3>
 800402c:	4604      	mov	r4, r0
 800402e:	460d      	mov	r5, r1
 8004030:	ec45 4b10 	vmov	d0, r4, r5
 8004034:	e8bd 81f0 	ldmia.w	sp!, {r4, r5, r6, r7, r8, pc}
 8004038:	2d00      	cmp	r5, #0
 800403a:	dc10      	bgt.n	800405e <__ieee754_sqrt+0x62>
 800403c:	f025 4600 	bic.w	r6, r5, #2147483648	; 0x80000000
 8004040:	4330      	orrs	r0, r6
 8004042:	d0f5      	beq.n	8004030 <__ieee754_sqrt+0x34>
 8004044:	b15d      	cbz	r5, 800405e <__ieee754_sqrt+0x62>
 8004046:	ee10 2a10 	vmov	r2, s0
 800404a:	462b      	mov	r3, r5
 800404c:	ee10 0a10 	vmov	r0, s0
 8004050:	f7fc f8c6 	bl	80001e0 <__aeabi_dsub>
 8004054:	4602      	mov	r2, r0
 8004056:	460b      	mov	r3, r1
 8004058:	f7fc fba4 	bl	80007a4 <__aeabi_ddiv>
 800405c:	e7e6      	b.n	800402c <__ieee754_sqrt+0x30>
 800405e:	1509      	asrs	r1, r1, #20
 8004060:	d076      	beq.n	8004150 <__ieee754_sqrt+0x154>
 8004062:	f3c2 0213 	ubfx	r2, r2, #0, #20
 8004066:	07ce      	lsls	r6, r1, #31
 8004068:	f442 1080 	orr.w	r0, r2, #1048576	; 0x100000
 800406c:	bf5e      	ittt	pl
 800406e:	0fda      	lsrpl	r2, r3, #31
 8004070:	005b      	lslpl	r3, r3, #1
 8004072:	eb02 0040 	addpl.w	r0, r2, r0, lsl #1
 8004076:	0fda      	lsrs	r2, r3, #31
 8004078:	f2a1 35ff 	subw	r5, r1, #1023	; 0x3ff
 800407c:	eb02 0240 	add.w	r2, r2, r0, lsl #1
 8004080:	2000      	movs	r0, #0
 8004082:	106d      	asrs	r5, r5, #1
 8004084:	005b      	lsls	r3, r3, #1
 8004086:	f04f 0e16 	mov.w	lr, #22
 800408a:	4684      	mov	ip, r0
 800408c:	f44f 1100 	mov.w	r1, #2097152	; 0x200000
 8004090:	eb0c 0401 	add.w	r4, ip, r1
 8004094:	4294      	cmp	r4, r2
 8004096:	bfde      	ittt	le
 8004098:	1b12      	suble	r2, r2, r4
 800409a:	eb04 0c01 	addle.w	ip, r4, r1
 800409e:	1840      	addle	r0, r0, r1
 80040a0:	0052      	lsls	r2, r2, #1
 80040a2:	f1be 0e01 	subs.w	lr, lr, #1
 80040a6:	eb02 72d3 	add.w	r2, r2, r3, lsr #31
 80040aa:	ea4f 0151 	mov.w	r1, r1, lsr #1
 80040ae:	ea4f 0343 	mov.w	r3, r3, lsl #1
 80040b2:	d1ed      	bne.n	8004090 <__ieee754_sqrt+0x94>
 80040b4:	4671      	mov	r1, lr
 80040b6:	2720      	movs	r7, #32
 80040b8:	f04f 4400 	mov.w	r4, #2147483648	; 0x80000000
 80040bc:	4562      	cmp	r2, ip
 80040be:	eb04 060e 	add.w	r6, r4, lr
 80040c2:	dc02      	bgt.n	80040ca <__ieee754_sqrt+0xce>
 80040c4:	d113      	bne.n	80040ee <__ieee754_sqrt+0xf2>
 80040c6:	429e      	cmp	r6, r3
 80040c8:	d811      	bhi.n	80040ee <__ieee754_sqrt+0xf2>
 80040ca:	2e00      	cmp	r6, #0
 80040cc:	eb06 0e04 	add.w	lr, r6, r4
 80040d0:	da43      	bge.n	800415a <__ieee754_sqrt+0x15e>
 80040d2:	f1be 0f00 	cmp.w	lr, #0
 80040d6:	db40      	blt.n	800415a <__ieee754_sqrt+0x15e>
 80040d8:	f10c 0801 	add.w	r8, ip, #1
 80040dc:	eba2 020c 	sub.w	r2, r2, ip
 80040e0:	429e      	cmp	r6, r3
 80040e2:	bf88      	it	hi
 80040e4:	f102 32ff 	addhi.w	r2, r2, #4294967295
 80040e8:	1b9b      	subs	r3, r3, r6
 80040ea:	4421      	add	r1, r4
 80040ec:	46c4      	mov	ip, r8
 80040ee:	0052      	lsls	r2, r2, #1
 80040f0:	3f01      	subs	r7, #1
 80040f2:	eb02 72d3 	add.w	r2, r2, r3, lsr #31
 80040f6:	ea4f 0454 	mov.w	r4, r4, lsr #1
 80040fa:	ea4f 0343 	mov.w	r3, r3, lsl #1
 80040fe:	d1dd      	bne.n	80040bc <__ieee754_sqrt+0xc0>
 8004100:	4313      	orrs	r3, r2
 8004102:	d006      	beq.n	8004112 <__ieee754_sqrt+0x116>
 8004104:	1c4c      	adds	r4, r1, #1
 8004106:	bf13      	iteet	ne
 8004108:	3101      	addne	r1, #1
 800410a:	3001      	addeq	r0, #1
 800410c:	4639      	moveq	r1, r7
 800410e:	f021 0101 	bicne.w	r1, r1, #1
 8004112:	1043      	asrs	r3, r0, #1
 8004114:	f103 537f 	add.w	r3, r3, #1069547520	; 0x3fc00000
 8004118:	0849      	lsrs	r1, r1, #1
 800411a:	f503 1300 	add.w	r3, r3, #2097152	; 0x200000
 800411e:	07c2      	lsls	r2, r0, #31
 8004120:	bf48      	it	mi
 8004122:	f041 4100 	orrmi.w	r1, r1, #2147483648	; 0x80000000
 8004126:	eb03 5705 	add.w	r7, r3, r5, lsl #20
 800412a:	460c      	mov	r4, r1
 800412c:	463d      	mov	r5, r7
 800412e:	e77f      	b.n	8004030 <__ieee754_sqrt+0x34>
 8004130:	0ada      	lsrs	r2, r3, #11
 8004132:	3815      	subs	r0, #21
 8004134:	055b      	lsls	r3, r3, #21
 8004136:	2a00      	cmp	r2, #0
 8004138:	d0fa      	beq.n	8004130 <__ieee754_sqrt+0x134>
 800413a:	02d7      	lsls	r7, r2, #11
 800413c:	d50a      	bpl.n	8004154 <__ieee754_sqrt+0x158>
 800413e:	f1c1 0420 	rsb	r4, r1, #32
 8004142:	fa23 f404 	lsr.w	r4, r3, r4
 8004146:	1e4d      	subs	r5, r1, #1
 8004148:	408b      	lsls	r3, r1
 800414a:	4322      	orrs	r2, r4
 800414c:	1b41      	subs	r1, r0, r5
 800414e:	e788      	b.n	8004062 <__ieee754_sqrt+0x66>
 8004150:	4608      	mov	r0, r1
 8004152:	e7f0      	b.n	8004136 <__ieee754_sqrt+0x13a>
 8004154:	0052      	lsls	r2, r2, #1
 8004156:	3101      	adds	r1, #1
 8004158:	e7ef      	b.n	800413a <__ieee754_sqrt+0x13e>
 800415a:	46e0      	mov	r8, ip
 800415c:	e7be      	b.n	80040dc <__ieee754_sqrt+0xe0>
 800415e:	bf00      	nop
 8004160:	7ff00000 	.word	0x7ff00000
 8004164:	00000000 	.word	0x00000000

08004168 <atan>:
 8004168:	e92d 4ff8 	stmdb	sp!, {r3, r4, r5, r6, r7, r8, r9, sl, fp, lr}
 800416c:	ec55 4b10 	vmov	r4, r5, d0
 8004170:	4bc3      	ldr	r3, [pc, #780]	; (8004480 <atan+0x318>)
 8004172:	f025 4600 	bic.w	r6, r5, #2147483648	; 0x80000000
 8004176:	429e      	cmp	r6, r3
 8004178:	46ab      	mov	fp, r5
 800417a:	dd18      	ble.n	80041ae <atan+0x46>
 800417c:	4bc1      	ldr	r3, [pc, #772]	; (8004484 <atan+0x31c>)
 800417e:	429e      	cmp	r6, r3
 8004180:	dc01      	bgt.n	8004186 <atan+0x1e>
 8004182:	d109      	bne.n	8004198 <atan+0x30>
 8004184:	b144      	cbz	r4, 8004198 <atan+0x30>
 8004186:	4622      	mov	r2, r4
 8004188:	462b      	mov	r3, r5
 800418a:	4620      	mov	r0, r4
 800418c:	4629      	mov	r1, r5
 800418e:	f7fc f829 	bl	80001e4 <__adddf3>
 8004192:	4604      	mov	r4, r0
 8004194:	460d      	mov	r5, r1
 8004196:	e006      	b.n	80041a6 <atan+0x3e>
 8004198:	f1bb 0f00 	cmp.w	fp, #0
 800419c:	f300 8131 	bgt.w	8004402 <atan+0x29a>
 80041a0:	a59b      	add	r5, pc, #620	; (adr r5, 8004410 <atan+0x2a8>)
 80041a2:	e9d5 4500 	ldrd	r4, r5, [r5]
 80041a6:	ec45 4b10 	vmov	d0, r4, r5
 80041aa:	e8bd 8ff8 	ldmia.w	sp!, {r3, r4, r5, r6, r7, r8, r9, sl, fp, pc}
 80041ae:	4bb6      	ldr	r3, [pc, #728]	; (8004488 <atan+0x320>)
 80041b0:	429e      	cmp	r6, r3
 80041b2:	dc14      	bgt.n	80041de <atan+0x76>
 80041b4:	f1a3 73de 	sub.w	r3, r3, #29097984	; 0x1bc0000
 80041b8:	429e      	cmp	r6, r3
 80041ba:	dc0d      	bgt.n	80041d8 <atan+0x70>
 80041bc:	a396      	add	r3, pc, #600	; (adr r3, 8004418 <atan+0x2b0>)
 80041be:	e9d3 2300 	ldrd	r2, r3, [r3]
 80041c2:	ee10 0a10 	vmov	r0, s0
 80041c6:	4629      	mov	r1, r5
 80041c8:	f7fc f80c 	bl	80001e4 <__adddf3>
 80041cc:	4baf      	ldr	r3, [pc, #700]	; (800448c <atan+0x324>)
 80041ce:	2200      	movs	r2, #0
 80041d0:	f7fc fc4e 	bl	8000a70 <__aeabi_dcmpgt>
 80041d4:	2800      	cmp	r0, #0
 80041d6:	d1e6      	bne.n	80041a6 <atan+0x3e>
 80041d8:	f04f 3aff 	mov.w	sl, #4294967295
 80041dc:	e02b      	b.n	8004236 <atan+0xce>
 80041de:	f000 f963 	bl	80044a8 <fabs>
 80041e2:	4bab      	ldr	r3, [pc, #684]	; (8004490 <atan+0x328>)
 80041e4:	429e      	cmp	r6, r3
 80041e6:	ec55 4b10 	vmov	r4, r5, d0
 80041ea:	f300 80bf 	bgt.w	800436c <atan+0x204>
 80041ee:	f5a3 2350 	sub.w	r3, r3, #851968	; 0xd0000
 80041f2:	429e      	cmp	r6, r3
 80041f4:	f300 80a0 	bgt.w	8004338 <atan+0x1d0>
 80041f8:	ee10 2a10 	vmov	r2, s0
 80041fc:	ee10 0a10 	vmov	r0, s0
 8004200:	462b      	mov	r3, r5
 8004202:	4629      	mov	r1, r5
 8004204:	f7fb ffee 	bl	80001e4 <__adddf3>
 8004208:	4ba0      	ldr	r3, [pc, #640]	; (800448c <atan+0x324>)
 800420a:	2200      	movs	r2, #0
 800420c:	f7fb ffe8 	bl	80001e0 <__aeabi_dsub>
 8004210:	2200      	movs	r2, #0
 8004212:	4606      	mov	r6, r0
 8004214:	460f      	mov	r7, r1
 8004216:	f04f 4380 	mov.w	r3, #1073741824	; 0x40000000
 800421a:	4620      	mov	r0, r4
 800421c:	4629      	mov	r1, r5
 800421e:	f7fb ffe1 	bl	80001e4 <__adddf3>
 8004222:	4602      	mov	r2, r0
 8004224:	460b      	mov	r3, r1
 8004226:	4630      	mov	r0, r6
 8004228:	4639      	mov	r1, r7
 800422a:	f7fc fabb 	bl	80007a4 <__aeabi_ddiv>
 800422e:	f04f 0a00 	mov.w	sl, #0
 8004232:	4604      	mov	r4, r0
 8004234:	460d      	mov	r5, r1
 8004236:	4622      	mov	r2, r4
 8004238:	462b      	mov	r3, r5
 800423a:	4620      	mov	r0, r4
 800423c:	4629      	mov	r1, r5
 800423e:	f7fc f987 	bl	8000550 <__aeabi_dmul>
 8004242:	4602      	mov	r2, r0
 8004244:	460b      	mov	r3, r1
 8004246:	4680      	mov	r8, r0
 8004248:	4689      	mov	r9, r1
 800424a:	f7fc f981 	bl	8000550 <__aeabi_dmul>
 800424e:	a374      	add	r3, pc, #464	; (adr r3, 8004420 <atan+0x2b8>)
 8004250:	e9d3 2300 	ldrd	r2, r3, [r3]
 8004254:	4606      	mov	r6, r0
 8004256:	460f      	mov	r7, r1
 8004258:	f7fc f97a 	bl	8000550 <__aeabi_dmul>
 800425c:	a372      	add	r3, pc, #456	; (adr r3, 8004428 <atan+0x2c0>)
 800425e:	e9d3 2300 	ldrd	r2, r3, [r3]
 8004262:	f7fb ffbf 	bl	80001e4 <__adddf3>
 8004266:	4632      	mov	r2, r6
 8004268:	463b      	mov	r3, r7
 800426a:	f7fc f971 	bl	8000550 <__aeabi_dmul>
 800426e:	a370      	add	r3, pc, #448	; (adr r3, 8004430 <atan+0x2c8>)
 8004270:	e9d3 2300 	ldrd	r2, r3, [r3]
 8004274:	f7fb ffb6 	bl	80001e4 <__adddf3>
 8004278:	4632      	mov	r2, r6
 800427a:	463b      	mov	r3, r7
 800427c:	f7fc f968 	bl	8000550 <__aeabi_dmul>
 8004280:	a36d      	add	r3, pc, #436	; (adr r3, 8004438 <atan+0x2d0>)
 8004282:	e9d3 2300 	ldrd	r2, r3, [r3]
 8004286:	f7fb ffad 	bl	80001e4 <__adddf3>
 800428a:	4632      	mov	r2, r6
 800428c:	463b      	mov	r3, r7
 800428e:	f7fc f95f 	bl	8000550 <__aeabi_dmul>
 8004292:	a36b      	add	r3, pc, #428	; (adr r3, 8004440 <atan+0x2d8>)
 8004294:	e9d3 2300 	ldrd	r2, r3, [r3]
 8004298:	f7fb ffa4 	bl	80001e4 <__adddf3>
 800429c:	4632      	mov	r2, r6
 800429e:	463b      	mov	r3, r7
 80042a0:	f7fc f956 	bl	8000550 <__aeabi_dmul>
 80042a4:	a368      	add	r3, pc, #416	; (adr r3, 8004448 <atan+0x2e0>)
 80042a6:	e9d3 2300 	ldrd	r2, r3, [r3]
 80042aa:	f7fb ff9b 	bl	80001e4 <__adddf3>
 80042ae:	4642      	mov	r2, r8
 80042b0:	464b      	mov	r3, r9
 80042b2:	f7fc f94d 	bl	8000550 <__aeabi_dmul>
 80042b6:	a366      	add	r3, pc, #408	; (adr r3, 8004450 <atan+0x2e8>)
 80042b8:	e9d3 2300 	ldrd	r2, r3, [r3]
 80042bc:	4680      	mov	r8, r0
 80042be:	4689      	mov	r9, r1
 80042c0:	4630      	mov	r0, r6
 80042c2:	4639      	mov	r1, r7
 80042c4:	f7fc f944 	bl	8000550 <__aeabi_dmul>
 80042c8:	a363      	add	r3, pc, #396	; (adr r3, 8004458 <atan+0x2f0>)
 80042ca:	e9d3 2300 	ldrd	r2, r3, [r3]
 80042ce:	f7fb ff87 	bl	80001e0 <__aeabi_dsub>
 80042d2:	4632      	mov	r2, r6
 80042d4:	463b      	mov	r3, r7
 80042d6:	f7fc f93b 	bl	8000550 <__aeabi_dmul>
 80042da:	a361      	add	r3, pc, #388	; (adr r3, 8004460 <atan+0x2f8>)
 80042dc:	e9d3 2300 	ldrd	r2, r3, [r3]
 80042e0:	f7fb ff7e 	bl	80001e0 <__aeabi_dsub>
 80042e4:	4632      	mov	r2, r6
 80042e6:	463b      	mov	r3, r7
 80042e8:	f7fc f932 	bl	8000550 <__aeabi_dmul>
 80042ec:	a35e      	add	r3, pc, #376	; (adr r3, 8004468 <atan+0x300>)
 80042ee:	e9d3 2300 	ldrd	r2, r3, [r3]
 80042f2:	f7fb ff75 	bl	80001e0 <__aeabi_dsub>
 80042f6:	4632      	mov	r2, r6
 80042f8:	463b      	mov	r3, r7
 80042fa:	f7fc f929 	bl	8000550 <__aeabi_dmul>
 80042fe:	a35c      	add	r3, pc, #368	; (adr r3, 8004470 <atan+0x308>)
 8004300:	e9d3 2300 	ldrd	r2, r3, [r3]
 8004304:	f7fb ff6c 	bl	80001e0 <__aeabi_dsub>
 8004308:	4632      	mov	r2, r6
 800430a:	463b      	mov	r3, r7
 800430c:	f7fc f920 	bl	8000550 <__aeabi_dmul>
 8004310:	4602      	mov	r2, r0
 8004312:	460b      	mov	r3, r1
 8004314:	4640      	mov	r0, r8
 8004316:	4649      	mov	r1, r9
 8004318:	f7fb ff64 	bl	80001e4 <__adddf3>
 800431c:	4622      	mov	r2, r4
 800431e:	462b      	mov	r3, r5
 8004320:	f7fc f916 	bl	8000550 <__aeabi_dmul>
 8004324:	f1ba 3fff 	cmp.w	sl, #4294967295
 8004328:	4602      	mov	r2, r0
 800432a:	460b      	mov	r3, r1
 800432c:	d14b      	bne.n	80043c6 <atan+0x25e>
 800432e:	4620      	mov	r0, r4
 8004330:	4629      	mov	r1, r5
 8004332:	f7fb ff55 	bl	80001e0 <__aeabi_dsub>
 8004336:	e72c      	b.n	8004192 <atan+0x2a>
 8004338:	ee10 0a10 	vmov	r0, s0
 800433c:	4b53      	ldr	r3, [pc, #332]	; (800448c <atan+0x324>)
 800433e:	2200      	movs	r2, #0
 8004340:	4629      	mov	r1, r5
 8004342:	f7fb ff4d 	bl	80001e0 <__aeabi_dsub>
 8004346:	4b51      	ldr	r3, [pc, #324]	; (800448c <atan+0x324>)
 8004348:	4606      	mov	r6, r0
 800434a:	460f      	mov	r7, r1
 800434c:	2200      	movs	r2, #0
 800434e:	4620      	mov	r0, r4
 8004350:	4629      	mov	r1, r5
 8004352:	f7fb ff47 	bl	80001e4 <__adddf3>
 8004356:	4602      	mov	r2, r0
 8004358:	460b      	mov	r3, r1
 800435a:	4630      	mov	r0, r6
 800435c:	4639      	mov	r1, r7
 800435e:	f7fc fa21 	bl	80007a4 <__aeabi_ddiv>
 8004362:	f04f 0a01 	mov.w	sl, #1
 8004366:	4604      	mov	r4, r0
 8004368:	460d      	mov	r5, r1
 800436a:	e764      	b.n	8004236 <atan+0xce>
 800436c:	4b49      	ldr	r3, [pc, #292]	; (8004494 <atan+0x32c>)
 800436e:	429e      	cmp	r6, r3
 8004370:	da1d      	bge.n	80043ae <atan+0x246>
 8004372:	ee10 0a10 	vmov	r0, s0
 8004376:	4b48      	ldr	r3, [pc, #288]	; (8004498 <atan+0x330>)
 8004378:	2200      	movs	r2, #0
 800437a:	4629      	mov	r1, r5
 800437c:	f7fb ff30 	bl	80001e0 <__aeabi_dsub>
 8004380:	4b45      	ldr	r3, [pc, #276]	; (8004498 <atan+0x330>)
 8004382:	4606      	mov	r6, r0
 8004384:	460f      	mov	r7, r1
 8004386:	2200      	movs	r2, #0
 8004388:	4620      	mov	r0, r4
 800438a:	4629      	mov	r1, r5
 800438c:	f7fc f8e0 	bl	8000550 <__aeabi_dmul>
 8004390:	4b3e      	ldr	r3, [pc, #248]	; (800448c <atan+0x324>)
 8004392:	2200      	movs	r2, #0
 8004394:	f7fb ff26 	bl	80001e4 <__adddf3>
 8004398:	4602      	mov	r2, r0
 800439a:	460b      	mov	r3, r1
 800439c:	4630      	mov	r0, r6
 800439e:	4639      	mov	r1, r7
 80043a0:	f7fc fa00 	bl	80007a4 <__aeabi_ddiv>
 80043a4:	f04f 0a02 	mov.w	sl, #2
 80043a8:	4604      	mov	r4, r0
 80043aa:	460d      	mov	r5, r1
 80043ac:	e743      	b.n	8004236 <atan+0xce>
 80043ae:	462b      	mov	r3, r5
 80043b0:	ee10 2a10 	vmov	r2, s0
 80043b4:	4939      	ldr	r1, [pc, #228]	; (800449c <atan+0x334>)
 80043b6:	2000      	movs	r0, #0
 80043b8:	f7fc f9f4 	bl	80007a4 <__aeabi_ddiv>
 80043bc:	f04f 0a03 	mov.w	sl, #3
 80043c0:	4604      	mov	r4, r0
 80043c2:	460d      	mov	r5, r1
 80043c4:	e737      	b.n	8004236 <atan+0xce>
 80043c6:	4b36      	ldr	r3, [pc, #216]	; (80044a0 <atan+0x338>)
 80043c8:	4e36      	ldr	r6, [pc, #216]	; (80044a4 <atan+0x33c>)
 80043ca:	eb06 06ca 	add.w	r6, r6, sl, lsl #3
 80043ce:	eb03 0aca 	add.w	sl, r3, sl, lsl #3
 80043d2:	e9da 2300 	ldrd	r2, r3, [sl]
 80043d6:	f7fb ff03 	bl	80001e0 <__aeabi_dsub>
 80043da:	4622      	mov	r2, r4
 80043dc:	462b      	mov	r3, r5
 80043de:	f7fb feff 	bl	80001e0 <__aeabi_dsub>
 80043e2:	4602      	mov	r2, r0
 80043e4:	460b      	mov	r3, r1
 80043e6:	e9d6 0100 	ldrd	r0, r1, [r6]
 80043ea:	f7fb fef9 	bl	80001e0 <__aeabi_dsub>
 80043ee:	f1bb 0f00 	cmp.w	fp, #0
 80043f2:	4604      	mov	r4, r0
 80043f4:	460d      	mov	r5, r1
 80043f6:	f6bf aed6 	bge.w	80041a6 <atan+0x3e>
 80043fa:	f101 4300 	add.w	r3, r1, #2147483648	; 0x80000000
 80043fe:	461d      	mov	r5, r3
 8004400:	e6d1      	b.n	80041a6 <atan+0x3e>
 8004402:	a51d      	add	r5, pc, #116	; (adr r5, 8004478 <atan+0x310>)
 8004404:	e9d5 4500 	ldrd	r4, r5, [r5]
 8004408:	e6cd      	b.n	80041a6 <atan+0x3e>
 800440a:	bf00      	nop
 800440c:	f3af 8000 	nop.w
 8004410:	54442d18 	.word	0x54442d18
 8004414:	bff921fb 	.word	0xbff921fb
 8004418:	8800759c 	.word	0x8800759c
 800441c:	7e37e43c 	.word	0x7e37e43c
 8004420:	e322da11 	.word	0xe322da11
 8004424:	3f90ad3a 	.word	0x3f90ad3a
 8004428:	24760deb 	.word	0x24760deb
 800442c:	3fa97b4b 	.word	0x3fa97b4b
 8004430:	a0d03d51 	.word	0xa0d03d51
 8004434:	3fb10d66 	.word	0x3fb10d66
 8004438:	c54c206e 	.word	0xc54c206e
 800443c:	3fb745cd 	.word	0x3fb745cd
 8004440:	920083ff 	.word	0x920083ff
 8004444:	3fc24924 	.word	0x3fc24924
 8004448:	5555550d 	.word	0x5555550d
 800444c:	3fd55555 	.word	0x3fd55555
 8004450:	2c6a6c2f 	.word	0x2c6a6c2f
 8004454:	bfa2b444 	.word	0xbfa2b444
 8004458:	52defd9a 	.word	0x52defd9a
 800445c:	3fadde2d 	.word	0x3fadde2d
 8004460:	af749a6d 	.word	0xaf749a6d
 8004464:	3fb3b0f2 	.word	0x3fb3b0f2
 8004468:	fe231671 	.word	0xfe231671
 800446c:	3fbc71c6 	.word	0x3fbc71c6
 8004470:	9998ebc4 	.word	0x9998ebc4
 8004474:	3fc99999 	.word	0x3fc99999
 8004478:	54442d18 	.word	0x54442d18
 800447c:	3ff921fb 	.word	0x3ff921fb
 8004480:	440fffff 	.word	0x440fffff
 8004484:	7ff00000 	.word	0x7ff00000
 8004488:	3fdbffff 	.word	0x3fdbffff
 800448c:	3ff00000 	.word	0x3ff00000
 8004490:	3ff2ffff 	.word	0x3ff2ffff
 8004494:	40038000 	.word	0x40038000
 8004498:	3ff80000 	.word	0x3ff80000
 800449c:	bff00000 	.word	0xbff00000
 80044a0:	08004548 	.word	0x08004548
 80044a4:	08004528 	.word	0x08004528

080044a8 <fabs>:
 80044a8:	ec51 0b10 	vmov	r0, r1, d0
 80044ac:	ee10 2a10 	vmov	r2, s0
 80044b0:	f021 4300 	bic.w	r3, r1, #2147483648	; 0x80000000
 80044b4:	ec43 2b10 	vmov	d0, r2, r3
 80044b8:	4770      	bx	lr
	...

080044bc <_init>:
 80044bc:	b5f8      	push	{r3, r4, r5, r6, r7, lr}
 80044be:	bf00      	nop
 80044c0:	bcf8      	pop	{r3, r4, r5, r6, r7}
 80044c2:	bc08      	pop	{r3}
 80044c4:	469e      	mov	lr, r3
 80044c6:	4770      	bx	lr

080044c8 <_fini>:
 80044c8:	b5f8      	push	{r3, r4, r5, r6, r7, lr}
 80044ca:	bf00      	nop
 80044cc:	bcf8      	pop	{r3, r4, r5, r6, r7}
 80044ce:	bc08      	pop	{r3}
 80044d0:	469e      	mov	lr, r3
 80044d2:	4770      	bx	lr
